Archive member included because of file (symbol)

/home/kb310/PPC/tool-chain/lib/gcc/powerpc-e300c3-linux-gnu/4.7.0/libgcc.a(_lshrdi3.o)
                              drivers/mtd/nand/libnand.o (__lshrdi3)

Allocating common symbols
Common symbol       size              file

ext_fs              0x48              fs/ext4/libext4fs.o
console_buffer      0x101             common/libcommon.o
NetArpPacketBuf     0x620             net/libnet.o
NetArpWaitTry       0x4               net/libnet.o
NetArpWaitPacketMAC
                    0x4               net/libnet.o
hist_list           0x50              common/libcommon.o
flash_info          0x2bc             drivers/mtd/libmtd.o
hist_lines          0x1414            common/libcommon.o
NetOurEther         0x6               net/libnet.o
NetOurIP            0x4               net/libnet.o
NetPingIP           0x4               net/libnet.o
part_offset         0x4               fs/ext4/libext4fs.o
NetServerIP         0x4               net/libnet.o
usb_started         0x1               common/libcommon.o
monitor_flash_len   0x4               arch/powerpc/lib/libpowerpc.o
save_addr           0x4               common/libcommon.o
___strtok           0x4               lib/libgeneric.o
NetArpWaitTxPacketSize
                    0x4               net/libnet.o
NetArpWaitReplyIP   0x4               net/libnet.o
NetRxPackets        0x10              net/libnet.o
ext4fs_indir1_size  0x4               fs/ext4/libext4fs.o
NetArpWaitPacketIP  0x4               net/libnet.o
BootpTry            0x4               net/libnet.o
ext4fs_indir2_block
                    0x4               fs/ext4/libext4fs.o
nand_info           0xa8              drivers/mtd/nand/libnand.o
BootFile            0x80              net/libnet.o
eth_current         0x4               net/libnet.o
ext4fs_indir3_block
                    0x4               fs/ext4/libext4fs.o
his_pad_char        0x1               common/libcommon.o
NetServerEther      0x6               net/libnet.o
ext4fs_symlinknest  0x4               fs/ext4/libext4fs.o
rootdev             0x4               drivers/usb/host/libusb_host.o
hccr                0x4               drivers/usb/host/libusb_host.o
os_data_init        0x4               common/libcommon.o
NetOurSubnetMask    0x4               net/libnet.o
NetBootFileSize     0x2               net/libnet.o
NetIPID             0x4               net/libnet.o
NetRxPacket         0x4               net/libnet.o
mtd_table           0x80              drivers/mtd/libmtd.o
net_state           0x4               net/libnet.o
nesting_level       0x4               common/libcommon.o
images              0x130             common/libcommon.o
send_ptr            0x4               common/libcommon.o
hcor                0x4               drivers/usb/host/libusb_host.o
BootpID             0x4               net/libnet.o
last_return_code    0x4               common/libcommon.o
NetOurGatewayIP     0x4               net/libnet.o
NetEtherNullAddr    0x6               net/libnet.o
working_fdt         0x4               common/libcommon.o
ext4fs_indir3_size  0x4               fs/ext4/libext4fs.o
g_parent_inode      0x4               fs/ext4/libext4fs.o
os_data_char        0x4               common/libcommon.o
mtdids              0x8               common/libcommon.o
NetRestartWrap      0x4               net/libnet.o
NetArpTxPacket      0x4               net/libnet.o
ext4fs_indir2_size  0x4               fs/ext4/libext4fs.o
ext4fs_indir1_block
                    0x4               fs/ext4/libext4fs.o
save_size           0x4               common/libcommon.o
ext4fs_file         0x4               fs/ext4/libext4fs.o
his_eol             0x1               common/libcommon.o
NetTxPacket         0x4               net/libnet.o
devices             0x8               common/libcommon.o
his_quote           0x1               common/libcommon.o
NetBootFileXferSize
                    0x4               net/libnet.o
ext4fs_root         0x4               fs/ext4/libext4fs.o
NetOurDNSIP         0x4               net/libnet.o
NetRxPacketLen      0x4               net/libnet.o
sata_dev_desc       0xe0              common/libcommon.o
PktBuf              0x1e20            net/libnet.o
send_parms          0x14              common/libcommon.o
his_pad_count       0x4               common/libcommon.o
NetArpWaitTimerStart
                    0x4               net/libnet.o

Discarded input sections

 .data          0x0000000000000000        0x0 arch/powerpc/cpu/mpc83xx/start.o
 .bss           0x0000000000000000        0x0 arch/powerpc/cpu/mpc83xx/start.o
 .text          0x0000000000000000        0x0 arch/powerpc/cpu/mpc83xx/libmpc83xx.o
 .text.SoftEmuException
                0x0000000000000000       0x34 arch/powerpc/cpu/mpc83xx/libmpc83xx.o
 .text.addr_probe
                0x0000000000000000        0x8 arch/powerpc/cpu/mpc83xx/libmpc83xx.o
 .text.cpu_mmc_init
                0x0000000000000000        0x8 arch/powerpc/cpu/mpc83xx/libmpc83xx.o
 .text.get_bus_freq
                0x0000000000000000        0x8 arch/powerpc/cpu/mpc83xx/libmpc83xx.o
 .text.get_ddr_freq
                0x0000000000000000        0x8 arch/powerpc/cpu/mpc83xx/libmpc83xx.o
 .data          0x0000000000000000        0x0 arch/powerpc/cpu/mpc83xx/libmpc83xx.o
 .bss           0x0000000000000000        0x0 arch/powerpc/cpu/mpc83xx/libmpc83xx.o
 .text          0x0000000000000000        0x0 arch/powerpc/cpu/mpc8xxx/lib8xxx.o
 .text.fdt_fixup_phy_connection
                0x0000000000000000       0x88 arch/powerpc/cpu/mpc8xxx/lib8xxx.o
 .text.print_lbc_regs
                0x0000000000000000       0xd4 arch/powerpc/cpu/mpc8xxx/lib8xxx.o
 .text.upmconfig
                0x0000000000000000      0x1f8 arch/powerpc/cpu/mpc8xxx/lib8xxx.o
 .rodata.__func__.3842
                0x0000000000000000        0xa arch/powerpc/cpu/mpc8xxx/lib8xxx.o
 .bss           0x0000000000000000        0x0 arch/powerpc/cpu/mpc8xxx/lib8xxx.o
 .text.__board_add_ram_info
                0x0000000000000000        0x4 arch/powerpc/lib/libpowerpc.o
 .text.__fixup_cpu
                0x0000000000000000        0x8 arch/powerpc/lib/libpowerpc.o
 .text.ticks2usec
                0x0000000000000000       0x38 arch/powerpc/lib/libpowerpc.o
 .data          0x0000000000000000        0x0 arch/powerpc/lib/libpowerpc.o
 .sdata.ex_tab_message
                0x0000000000000000        0x4 arch/powerpc/lib/libpowerpc.o
 .bss           0x0000000000000000        0x0 arch/powerpc/lib/libpowerpc.o
 .text          0x0000000000000000        0x0 common/libcommon.o
 .text.__def_i2c_init_board
                0x0000000000000000        0x4 common/libcommon.o
 .text.__def_i2c_get_bus_speed
                0x0000000000000000        0xc common/libcommon.o
 .text.__def_i2c_set_bus_speed
                0x0000000000000000       0x1c common/libcommon.o
 .text.setenv_ulong
                0x0000000000000000       0x90 common/libcommon.o
 .text.setenv_addr
                0x0000000000000000       0x9c common/libcommon.o
 .text.serial_printf
                0x0000000000000000       0x80 common/libcommon.o
 .text.fprintf  0x0000000000000000       0x90 common/libcommon.o
 .text.disable_ctrlc
                0x0000000000000000       0x34 common/libcommon.o
 .text.dbg      0x0000000000000000        0x4 common/libcommon.o
 .text.cfree    0x0000000000000000       0x20 common/libcommon.o
 .text.pvalloc  0x0000000000000000       0x2c common/libcommon.o
 .text.valloc   0x0000000000000000       0x28 common/libcommon.o
 .text.malloc_usable_size
                0x0000000000000000       0x4c common/libcommon.o
 .text.mallopt  0x0000000000000000       0xa0 common/libcommon.o
 .text.fdt_getprop_u32_default
                0x0000000000000000       0x80 common/libcommon.o
 .text.do_fixup_by_path_u32
                0x0000000000000000       0x34 common/libcommon.o
 .text.fdt_pci_dma_ranges
                0x0000000000000000      0x180 common/libcommon.o
 .text.fdt_increase_size
                0x0000000000000000       0x2c common/libcommon.o
 .text.fdt_del_node_and_alias
                0x0000000000000000       0x74 common/libcommon.o
 .text.__of_translate_address
                0x0000000000000000      0x35c common/libcommon.o
 .text.fdt_translate_address
                0x0000000000000000       0x34 common/libcommon.o
 .text.fdt_node_offset_by_compat_reg
                0x0000000000000000       0xe0 common/libcommon.o
 .text.fdt_alloc_phandle
                0x0000000000000000       0x98 common/libcommon.o
 .text.fdt_set_phandle
                0x0000000000000000       0x88 common/libcommon.o
 .text.fdt_create_phandle
                0x0000000000000000       0x9c common/libcommon.o
 .text.fdt_set_node_status
                0x0000000000000000      0x144 common/libcommon.o
 .text.fdt_set_status_by_alias
                0x0000000000000000       0x60 common/libcommon.o
 .text.fdt_verify_alias_address
                0x0000000000000000      0x124 common/libcommon.o
 .text.fdt_get_base_address
                0x0000000000000000       0xc4 common/libcommon.o
 .text.unset_local_var
                0x0000000000000000       0xe0 common/libcommon.o
 .text.get_table_entry_id
                0x0000000000000000       0x88 common/libcommon.o
 .text.genimg_get_os_id
                0x0000000000000000       0x3c common/libcommon.o
 .text.genimg_get_arch_id
                0x0000000000000000       0x3c common/libcommon.o
 .text.genimg_get_type_id
                0x0000000000000000       0x3c common/libcommon.o
 .text.genimg_get_comp_id
                0x0000000000000000       0x3c common/libcommon.o
 .text.parse_line
                0x0000000000000000       0xf8 common/libcommon.o
 .text.get_ram_size
                0x0000000000000000      0x1a4 common/libcommon.o
 .text.usb_submit_int_msg
                0x0000000000000000       0x20 common/libcommon.o
 .text.usb_set_protocol
                0x0000000000000000       0x60 common/libcommon.o
 .text.usb_set_idle
                0x0000000000000000       0x68 common/libcommon.o
 .text.usb_get_report
                0x0000000000000000       0x70 common/libcommon.o
 .text.usb_get_class_descriptor
                0x0000000000000000       0x70 common/libcommon.o
 .rodata.version_string
                0x0000000000000000       0x37 common/libcommon.o
 .rodata.__FUNCTION__.5158
                0x0000000000000000       0x17 common/libcommon.o
 .data          0x0000000000000000        0x0 common/libcommon.o
 .sdata.ShortPCIListing
                0x0000000000000000        0x1 common/libcommon.o
 .data.mmap_threshold
                0x0000000000000000        0x4 common/libcommon.o
 .bss           0x0000000000000000        0x0 common/libcommon.o
 .bss.n_mmaps_max
                0x0000000000000000        0x4 common/libcommon.o
 .text          0x0000000000000000        0x0 disk/libdisk.o
 .data          0x0000000000000000        0x0 disk/libdisk.o
 .bss           0x0000000000000000        0x0 disk/libdisk.o
 .text          0x0000000000000000        0x0 drivers/block/libblock.o
 .text.dprint_buffer
                0x0000000000000000       0xdc drivers/block/libblock.o
 .text.fsl_sata_hardware_reset
                0x0000000000000000       0xc8 drivers/block/libblock.o
 .text.fsl_sata_software_reset
                0x0000000000000000        0x4 drivers/block/libblock.o
 .text.ata_dump_id
                0x0000000000000000      0x114 drivers/block/libblock.o
 .data          0x0000000000000000        0x0 drivers/block/libblock.o
 .bss           0x0000000000000000        0x0 drivers/block/libblock.o
 .text          0x0000000000000000        0x0 drivers/i2c/libi2c.o
 .text.i2c_get_bus_num
                0x0000000000000000       0x2c drivers/i2c/libi2c.o
 .bss           0x0000000000000000        0x0 drivers/i2c/libi2c.o
 .text          0x0000000000000000        0x0 drivers/input/libinput.o
 .text.array_search
                0x0000000000000000       0x54 drivers/input/libinput.o
 .text.input_queue_ascii
                0x0000000000000000       0x58 drivers/input/libinput.o
 .text.input_tstc
                0x0000000000000000       0x74 drivers/input/libinput.o
 .text.input_getc
                0x0000000000000000       0x88 drivers/input/libinput.o
 .text.input_send_keycodes
                0x0000000000000000      0x3b4 drivers/input/libinput.o
 .text.input_add_table
                0x0000000000000000       0x40 drivers/input/libinput.o
 .text.input_init
                0x0000000000000000       0xec drivers/input/libinput.o
 .text.input_stdio_register
                0x0000000000000000       0x84 drivers/input/libinput.o
 .rodata.kbd_plain_xlate
                0x0000000000000000       0x63 drivers/input/libinput.o
 .rodata.str1.4
                0x0000000000000000        0x6 drivers/input/libinput.o
 .data          0x0000000000000000        0x0 drivers/input/libinput.o
 .data.kbd_ctrl_xlate
                0x0000000000000000       0x63 drivers/input/libinput.o
 .data.kbd_shift_xlate
                0x0000000000000000       0x63 drivers/input/libinput.o
 .bss           0x0000000000000000        0x0 drivers/input/libinput.o
 .comment       0x0000000000000000       0x12 drivers/input/libinput.o
 .note.GNU-stack
                0x0000000000000000        0x0 drivers/input/libinput.o
 .debug_aranges
                0x0000000000000000       0x58 drivers/input/libinput.o
 .debug_info    0x0000000000000000      0xff0 drivers/input/libinput.o
 .debug_abbrev  0x0000000000000000      0x3c9 drivers/input/libinput.o
 .debug_line    0x0000000000000000      0x32a drivers/input/libinput.o
 .debug_frame   0x0000000000000000      0x124 drivers/input/libinput.o
 .debug_str     0x0000000000000000      0x639 drivers/input/libinput.o
 .debug_loc     0x0000000000000000      0xb48 drivers/input/libinput.o
 .debug_ranges  0x0000000000000000      0x170 drivers/input/libinput.o
 .text          0x0000000000000000        0x0 drivers/mtd/libmtd.o
 .text.del_mtd_device
                0x0000000000000000       0x80 drivers/mtd/libmtd.o
 .text.get_mtd_device
                0x0000000000000000       0xa8 drivers/mtd/libmtd.o
 .text.put_mtd_device
                0x0000000000000000       0x50 drivers/mtd/libmtd.o
 .text.flash_sector_size
                0x0000000000000000       0x54 drivers/mtd/libmtd.o
 .text.flash_read_user_serial
                0x0000000000000000       0xa8 drivers/mtd/libmtd.o
 .text.flash_read_factory_serial
                0x0000000000000000       0xa8 drivers/mtd/libmtd.o
 .data          0x0000000000000000        0x0 drivers/mtd/libmtd.o
 .bss           0x0000000000000000        0x0 drivers/mtd/libmtd.o
 .text          0x0000000000000000        0x0 drivers/mtd/nand/libnand.o
 .text.nand_scan
                0x0000000000000000       0x40 drivers/mtd/nand/libnand.o
 .text.nand_release
                0x0000000000000000       0x60 drivers/mtd/nand/libnand.o
 .data          0x0000000000000000        0x0 drivers/mtd/nand/libnand.o
 .bss           0x0000000000000000        0x0 drivers/mtd/nand/libnand.o
 .text          0x0000000000000000        0x0 drivers/net/libnet.o
 .data          0x0000000000000000        0x0 drivers/net/libnet.o
 .bss           0x0000000000000000        0x0 drivers/net/libnet.o
 .text          0x0000000000000000        0x0 drivers/net/phy/libphy.o
 .text.miiphy_reset
                0x0000000000000000       0x3c drivers/net/phy/libphy.o
 .data          0x0000000000000000        0x0 drivers/net/phy/libphy.o
 .bss           0x0000000000000000        0x0 drivers/net/phy/libphy.o
 .text          0x0000000000000000        0x0 drivers/pci/libpci.o
 .text.pci_hose_read_config_byte_via_dword
                0x0000000000000000       0x74 drivers/pci/libpci.o
 .text.pci_hose_read_config_word_via_dword
                0x0000000000000000       0x74 drivers/pci/libpci.o
 .text.pci_hose_write_config_byte_via_dword
                0x0000000000000000       0xb0 drivers/pci/libpci.o
 .text.pci_hose_write_config_word_via_dword
                0x0000000000000000       0xb4 drivers/pci/libpci.o
 .text.find_hose_by_cfg_addr
                0x0000000000000000       0x60 drivers/pci/libpci.o
 .text.pci_find_device
                0x0000000000000000       0x44 drivers/pci/libpci.o
 .text.pci_map_bar
                0x0000000000000000       0x68 drivers/pci/libpci.o
 .text.pci_hose_config_device
                0x0000000000000000      0x220 drivers/pci/libpci.o
 .text.pci_find_config
                0x0000000000000000       0xb0 drivers/pci/libpci.o
 .text.pci_cfgfunc_config_device
                0x0000000000000000       0x30 drivers/pci/libpci.o
 .text.pci_cfgfunc_do_nothing
                0x0000000000000000        0x4 drivers/pci/libpci.o
 .data          0x0000000000000000        0x0 drivers/pci/libpci.o
 .bss           0x0000000000000000        0x0 drivers/pci/libpci.o
 .bss.ids.4262  0x0000000000000000       0x10 drivers/pci/libpci.o
 .text          0x0000000000000000        0x0 drivers/pcmcia/libpcmcia.o
 .data          0x0000000000000000        0x0 drivers/pcmcia/libpcmcia.o
 .bss           0x0000000000000000        0x0 drivers/pcmcia/libpcmcia.o
 .comment       0x0000000000000000       0x24 drivers/pcmcia/libpcmcia.o
 .note.GNU-stack
                0x0000000000000000        0x0 drivers/pcmcia/libpcmcia.o
 .debug_aranges
                0x0000000000000000       0x30 drivers/pcmcia/libpcmcia.o
 .debug_info    0x0000000000000000      0x606 drivers/pcmcia/libpcmcia.o
 .debug_abbrev  0x0000000000000000      0x190 drivers/pcmcia/libpcmcia.o
 .debug_line    0x0000000000000000      0x1c2 drivers/pcmcia/libpcmcia.o
 .debug_str     0x0000000000000000      0x543 drivers/pcmcia/libpcmcia.o
 .text          0x0000000000000000        0x0 drivers/rtc/librtc.o
 .text.mktime   0x0000000000000000       0x78 drivers/rtc/librtc.o
 .data          0x0000000000000000        0x0 drivers/rtc/librtc.o
 .bss           0x0000000000000000        0x0 drivers/rtc/librtc.o
 .text          0x0000000000000000        0x0 drivers/serial/libserial.o
 .text._serial_putc_raw
                0x0000000000000000       0x48 drivers/serial/libserial.o
 .text.serial_putc_raw
                0x0000000000000000       0x24 drivers/serial/libserial.o
 .data          0x0000000000000000        0x0 drivers/serial/libserial.o
 .bss           0x0000000000000000        0x0 drivers/serial/libserial.o
 .text          0x0000000000000000        0x0 drivers/usb/host/libusb_host.o
 .data          0x0000000000000000        0x0 drivers/usb/host/libusb_host.o
 .bss           0x0000000000000000        0x0 drivers/usb/host/libusb_host.o
 .text          0x0000000000000000        0x0 fs/ext4/libext4fs.o
 .data          0x0000000000000000        0x0 fs/ext4/libext4fs.o
 .bss           0x0000000000000000        0x0 fs/ext4/libext4fs.o
 .text          0x0000000000000000        0x0 lib/libfdt/libfdt.o
 .text.fdt_subnode_offset
                0x0000000000000000       0x64 lib/libfdt/libfdt.o
 .text.fdt_getprop_by_offset
                0x0000000000000000       0x78 lib/libfdt/libfdt.o
 .text.fdt_get_phandle
                0x0000000000000000       0x9c lib/libfdt/libfdt.o
 .text.fdt_get_alias
                0x0000000000000000       0x54 lib/libfdt/libfdt.o
 .text.fdt_get_path
                0x0000000000000000      0x1f0 lib/libfdt/libfdt.o
 .text.fdt_supernode_atdepth_offset
                0x0000000000000000      0x118 lib/libfdt/libfdt.o
 .text.fdt_node_depth
                0x0000000000000000       0x40 lib/libfdt/libfdt.o
 .text.fdt_parent_offset
                0x0000000000000000       0x64 lib/libfdt/libfdt.o
 .text.fdt_node_offset_by_phandle
                0x0000000000000000       0xc0 lib/libfdt/libfdt.o
 .text.fdt_set_name
                0x0000000000000000       0xd4 lib/libfdt/libfdt.o
 .text.fdt_pack
                0x0000000000000000       0x78 lib/libfdt/libfdt.o
 .text._fdt_sw_check_header
                0x0000000000000000       0x24 lib/libfdt/libfdt.o
 .text._fdt_grab_space
                0x0000000000000000       0x4c lib/libfdt/libfdt.o
 .text.fdt_create
                0x0000000000000000       0x8c lib/libfdt/libfdt.o
 .text.fdt_add_reservemap_entry
                0x0000000000000000       0xb4 lib/libfdt/libfdt.o
 .text.fdt_finish_reservemap
                0x0000000000000000       0x30 lib/libfdt/libfdt.o
 .text.fdt_begin_node
                0x0000000000000000       0xa8 lib/libfdt/libfdt.o
 .text.fdt_end_node
                0x0000000000000000       0x6c lib/libfdt/libfdt.o
 .text.fdt_property
                0x0000000000000000      0x160 lib/libfdt/libfdt.o
 .text.fdt_finish
                0x0000000000000000      0x118 lib/libfdt/libfdt.o
 .text._fdt_nop_region
                0x0000000000000000       0x24 lib/libfdt/libfdt.o
 .text.fdt_setprop_inplace
                0x0000000000000000       0x74 lib/libfdt/libfdt.o
 .text.fdt_nop_property
                0x0000000000000000       0x44 lib/libfdt/libfdt.o
 .text.fdt_nop_node
                0x0000000000000000       0x70 lib/libfdt/libfdt.o
 .data          0x0000000000000000        0x0 lib/libfdt/libfdt.o
 .bss           0x0000000000000000        0x0 lib/libfdt/libfdt.o
 .text          0x0000000000000000        0x0 lib/libgeneric.o
 .text.crc7     0x0000000000000000       0x4c lib/libgeneric.o
 .text.hstrstr_r
                0x0000000000000000      0x100 lib/libgeneric.o
 .text.ldiv     0x0000000000000000       0x30 lib/libgeneric.o
 .text.lmb_dump_all
                0x0000000000000000        0x4 lib/libgeneric.o
 .text.lmb_is_reserved
                0x0000000000000000       0x5c lib/libgeneric.o
 .text.__arch_lmb_reserve
                0x0000000000000000        0x4 lib/libgeneric.o
 .text.skip_spaces
                0x0000000000000000       0x50 lib/libgeneric.o
 .text.strim    0x0000000000000000       0x9c lib/libgeneric.o
 .text.strspn   0x0000000000000000       0x6c lib/libgeneric.o
 .text.strtok   0x0000000000000000       0xc0 lib/libgeneric.o
 .text.strsep   0x0000000000000000       0x68 lib/libgeneric.o
 .text.strswab  0x0000000000000000       0x58 lib/libgeneric.o
 .text.memscan  0x0000000000000000       0x3c lib/libgeneric.o
 .text.ustrtoul
                0x0000000000000000       0x9c lib/libgeneric.o
 .text.__assert_fail
                0x0000000000000000       0x24 lib/libgeneric.o
 .text.simple_itoa
                0x0000000000000000       0x70 lib/libgeneric.o
 .rodata.crc7_syndrome_table
                0x0000000000000000      0x100 lib/libgeneric.o
 .data          0x0000000000000000        0x0 lib/libgeneric.o
 .bss           0x0000000000000000        0x0 lib/libgeneric.o
 .bss.local.4105
                0x0000000000000000       0x16 lib/libgeneric.o
 .sbss          0x0000000000000000        0x4 lib/libgeneric.o
 .text          0x0000000000000000        0x0 lib/zlib/libz.o
 .text.inflateInit_
                0x0000000000000000       0x30 lib/zlib/libz.o
 .data          0x0000000000000000        0x0 lib/zlib/libz.o
 .bss           0x0000000000000000        0x0 lib/zlib/libz.o
 .text          0x0000000000000000        0x0 net/libnet.o
 .text.eth_get_dev_by_index
                0x0000000000000000       0x64 net/libnet.o
 .text.eth_unregister
                0x0000000000000000       0xcc net/libnet.o
 .text.net_get_udp_handler
                0x0000000000000000       0x2c net/libnet.o
 .text.random_port
                0x0000000000000000       0x2c net/libnet.o
 .text.VLAN_to_string
                0x0000000000000000       0x68 net/libnet.o
 .data          0x0000000000000000        0x0 net/libnet.o
 .sdata.TftpRRQTimeoutMSecs
                0x0000000000000000        0x4 net/libnet.o
 .bss           0x0000000000000000        0x0 net/libnet.o
 .text          0x0000000000000000        0x0 board/freescale/mpc8315erdb/libmpc8315erdb.o
 .bss           0x0000000000000000        0x0 board/freescale/mpc8315erdb/libmpc8315erdb.o
 .data          0x0000000000000000        0x0 /home/kb310/PPC/tool-chain/lib/gcc/powerpc-e300c3-linux-gnu/4.7.0/libgcc.a(_lshrdi3.o)
 .bss           0x0000000000000000        0x0 /home/kb310/PPC/tool-chain/lib/gcc/powerpc-e300c3-linux-gnu/4.7.0/libgcc.a(_lshrdi3.o)

Memory Configuration

Name             Origin             Length             Attributes
*default*        0x0000000000000000 0xffffffffffffffff

Linker script and memory map


.text           0x00000000fe000000    0x5c3de
 arch/powerpc/cpu/mpc83xx/start.o(.text*)
 .text          0x00000000fe000000     0x3814 arch/powerpc/cpu/mpc83xx/start.o
                0x00000000fe000044                version_string
                0x00000000fe000084                enable_addr_trans
                0x00000000fe000098                disable_addr_trans
                0x00000000fe0000b8                get_pvr
                0x00000000fe0000c0                ppcDWstore
                0x00000000fe0000cc                ppcDWload
                0x00000000fe000100                _start
                0x00000000fe0001a8                _start_of_vectors
                0x00000000fe002fa4                _end_of_vectors
                0x00000000fe003000                transfer_to_handler
                0x00000000fe003178                init_e300_core
                0x00000000fe0031f0                setup_bats
                0x00000000fe003394                icache_enable
                0x00000000fe0033bc                icache_disable
                0x00000000fe0033d8                icache_status
                0x00000000fe0033e4                dcache_enable
                0x00000000fe003400                dcache_disable
                0x00000000fe003430                dcache_status
                0x00000000fe00343c                flush_dcache
                0x00000000fe003460                relocate_code
                0x00000000fe003608                trap_init
                0x00000000fe003700                unlock_ram_in_cache
 *(.text*)
 .text.print_backtrace
                0x00000000fe003814      0x110 arch/powerpc/cpu/mpc83xx/libmpc83xx.o
                0x00000000fe003814                print_backtrace
 .text.show_regs
                0x00000000fe003924       0xfc arch/powerpc/cpu/mpc83xx/libmpc83xx.o
                0x00000000fe003924                show_regs
 .text._exception
                0x00000000fe003a20       0x48 arch/powerpc/cpu/mpc83xx/libmpc83xx.o
                0x00000000fe003a20                _exception
 .text.dump_pci
                0x00000000fe003a68        0x4 arch/powerpc/cpu/mpc83xx/libmpc83xx.o
                0x00000000fe003a68                dump_pci
 .text.MachineCheckException
                0x00000000fe003a6c       0xfc arch/powerpc/cpu/mpc83xx/libmpc83xx.o
                0x00000000fe003a6c                MachineCheckException
 .text.AlignmentException
                0x00000000fe003b68       0x34 arch/powerpc/cpu/mpc83xx/libmpc83xx.o
                0x00000000fe003b68                AlignmentException
 .text.ProgramCheckException
                0x00000000fe003b9c       0x34 arch/powerpc/cpu/mpc83xx/libmpc83xx.o
                0x00000000fe003b9c                ProgramCheckException
 .text.UnknownException
                0x00000000fe003bd0       0x58 arch/powerpc/cpu/mpc83xx/libmpc83xx.o
                0x00000000fe003bd0                UnknownException
 .text.DebugException
                0x00000000fe003c28       0x4c arch/powerpc/cpu/mpc83xx/libmpc83xx.o
                0x00000000fe003c28                DebugException
 .text.checkcpu
                0x00000000fe003c74      0x1e0 arch/powerpc/cpu/mpc83xx/libmpc83xx.o
                0x00000000fe003c74                checkcpu
 .text.do_reset
                0x00000000fe003e54       0x88 arch/powerpc/cpu/mpc83xx/libmpc83xx.o
                0x00000000fe003e54                do_reset
 .text.get_tbclk
                0x00000000fe003edc       0x10 arch/powerpc/cpu/mpc83xx/libmpc83xx.o
                0x00000000fe003edc                get_tbclk
 .text.cpu_eth_init
                0x00000000fe003eec       0x24 arch/powerpc/cpu/mpc83xx/libmpc83xx.o
                0x00000000fe003eec                cpu_eth_init
 .text.cpu_init_f
                0x00000000fe003f10      0x150 arch/powerpc/cpu/mpc83xx/libmpc83xx.o
                0x00000000fe003f10                cpu_init_f
 .text.cpu_init_r
                0x00000000fe004060        0x8 arch/powerpc/cpu/mpc83xx/libmpc83xx.o
                0x00000000fe004060                cpu_init_r
 .text.prt_83xx_rsr
                0x00000000fe004068       0xb4 arch/powerpc/cpu/mpc83xx/libmpc83xx.o
                0x00000000fe004068                prt_83xx_rsr
 .text.do_clocks
                0x00000000fe00411c      0x1a0 arch/powerpc/cpu/mpc83xx/libmpc83xx.o
                0x00000000fe00411c                do_clocks
 .text.get_clocks
                0x00000000fe0042bc      0x498 arch/powerpc/cpu/mpc83xx/libmpc83xx.o
                0x00000000fe0042bc                get_clocks
 .text.interrupt_init_cpu
                0x00000000fe004754       0x30 arch/powerpc/cpu/mpc83xx/libmpc83xx.o
                0x00000000fe004754                interrupt_init_cpu
 .text.external_interrupt
                0x00000000fe004784        0x4 arch/powerpc/cpu/mpc83xx/libmpc83xx.o
                0x00000000fe004784                external_interrupt
 .text.irq_install_handler
                0x00000000fe004788        0x4 arch/powerpc/cpu/mpc83xx/libmpc83xx.o
                0x00000000fe004788                irq_install_handler
 .text.irq_free_handler
                0x00000000fe00478c        0x4 arch/powerpc/cpu/mpc83xx/libmpc83xx.o
                0x00000000fe00478c                irq_free_handler
 .text.timer_interrupt_cpu
                0x00000000fe004790        0x4 arch/powerpc/cpu/mpc83xx/libmpc83xx.o
                0x00000000fe004790                timer_interrupt_cpu
 .text.mpc83xx_pci_init
                0x00000000fe004794      0x3bc arch/powerpc/cpu/mpc83xx/libmpc83xx.o
                0x00000000fe004794                mpc83xx_pci_init
 .text.ft_pci_setup
                0x00000000fe004b50      0x158 arch/powerpc/cpu/mpc83xx/libmpc83xx.o
                0x00000000fe004b50                ft_pci_setup
 .text.mpc83xx_pcie_init
                0x00000000fe004ca8      0x49c arch/powerpc/cpu/mpc83xx/libmpc83xx.o
                0x00000000fe004ca8                mpc83xx_pcie_init
 .text.ft_cpu_setup
                0x00000000fe005144      0x1dc arch/powerpc/cpu/mpc83xx/libmpc83xx.o
                0x00000000fe005144                ft_cpu_setup
 .text.invalidate_dcache_range
                0x00000000fe005320        0x4 arch/powerpc/cpu/mpc83xx/libmpc83xx.o
                0x00000000fe005320                invalidate_dcache_range
 .text.flush_dcache_range
                0x00000000fe005324        0x4 arch/powerpc/cpu/mpc83xx/libmpc83xx.o
                0x00000000fe005324                flush_dcache_range
 .text.board_add_ram_info
                0x00000000fe005328       0xd4 arch/powerpc/cpu/mpc83xx/libmpc83xx.o
                0x00000000fe005328                board_add_ram_info
 .text.fdt_fixup_usb_mode_phy_type
                0x00000000fe0053fc      0x150 arch/powerpc/cpu/mpc8xxx/lib8xxx.o
 .text.fdt_fixup_dr_usb
                0x00000000fe00554c      0x28c arch/powerpc/cpu/mpc8xxx/lib8xxx.o
                0x00000000fe00554c                fdt_fixup_dr_usb
 .text.fdt_fixup_crypto_node
                0x00000000fe0057d8      0x294 arch/powerpc/cpu/mpc8xxx/lib8xxx.o
                0x00000000fe0057d8                fdt_fixup_crypto_node
 .text.init_early_memctl_regs
                0x00000000fe005a6c       0x60 arch/powerpc/cpu/mpc8xxx/lib8xxx.o
                0x00000000fe005a6c                init_early_memctl_regs
 .text          0x00000000fe005acc      0x334 arch/powerpc/lib/libpowerpc.o
                0x00000000fe005acc                ppcDcbf
                0x00000000fe005ad4                ppcDcbi
                0x00000000fe005adc                ppcDcbz
                0x00000000fe005ae4                ppcSync
                0x00000000fe005aec                strcpy
                0x00000000fe005b08                strncpy
                0x00000000fe005b30                strcat
                0x00000000fe005b5c                strcmp
                0x00000000fe005b80                strlen
                0x00000000fe005b98                memset
                0x00000000fe005bf4                bcopy
                0x00000000fe005c04                memmove
                0x00000000fe005c0c                memcpy
                0x00000000fe005ca8                backwards_memcpy
                0x00000000fe005d30                memcmp
                0x00000000fe005d60                memchr
                0x00000000fe005d88                get_ticks
                0x00000000fe005da0                wait_ticks
                0x00000000fe005dd8                trap_reloc
 .text.init_func_i2c
                0x00000000fe005e00       0x50 arch/powerpc/lib/libpowerpc.o
 .text.init_baudrate
                0x00000000fe005e50       0x54 arch/powerpc/lib/libpowerpc.o
 .text.init_func_ram
                0x00000000fe005ea4       0x8c arch/powerpc/lib/libpowerpc.o
 .text.__board_flash_wp_on
                0x00000000fe005f30        0x8 arch/powerpc/lib/libpowerpc.o
                0x00000000fe005f30                __board_flash_wp_on
                0x00000000fe005f30                board_flash_wp_on
 .text.__cpu_secondary_init_r
                0x00000000fe005f38        0x4 arch/powerpc/lib/libpowerpc.o
                0x00000000fe005f38                cpu_secondary_init_r
                0x00000000fe005f38                __cpu_secondary_init_r
 .text.get_effective_memsize
                0x00000000fe005f3c        0x8 arch/powerpc/lib/libpowerpc.o
                0x00000000fe005f3c                get_effective_memsize
 .text.hang     0x00000000fe005f44       0x2c arch/powerpc/lib/libpowerpc.o
                0x00000000fe005f44                hang
 .text.board_init_r
                0x00000000fe005f70      0x158 arch/powerpc/lib/libpowerpc.o
                0x00000000fe005f70                board_init_r
 .text.board_init_f
                0x00000000fe0060c8      0x108 arch/powerpc/lib/libpowerpc.o
                0x00000000fe0060c8                board_init_f
 .text.boot_cmdline_linux
                0x00000000fe0061d0       0x70 arch/powerpc/lib/libpowerpc.o
 .text.boot_bd_t_linux
                0x00000000fe006240       0xb4 arch/powerpc/lib/libpowerpc.o
 .text.boot_jump_linux
                0x00000000fe0062f4       0xb0 arch/powerpc/lib/libpowerpc.o
 .text.arch_lmb_reserve
                0x00000000fe0063a4       0xcc arch/powerpc/lib/libpowerpc.o
                0x00000000fe0063a4                arch_lmb_reserve
 .text.__ft_verify_fdt
                0x00000000fe006470        0x8 arch/powerpc/lib/libpowerpc.o
                0x00000000fe006470                ft_verify_fdt
 .text.do_bootm_linux
                0x00000000fe006478      0x20c arch/powerpc/lib/libpowerpc.o
                0x00000000fe006478                do_bootm_linux
 .text.flush_cache
                0x00000000fe006684       0x64 arch/powerpc/lib/libpowerpc.o
                0x00000000fe006684                flush_cache
 .text.search_exception_table
                0x00000000fe0066e8       0x9c arch/powerpc/lib/libpowerpc.o
                0x00000000fe0066e8                search_exception_table
 .text.enable_interrupts
                0x00000000fe006784       0x10 arch/powerpc/lib/libpowerpc.o
                0x00000000fe006784                enable_interrupts
 .text.disable_interrupts
                0x00000000fe006794       0x14 arch/powerpc/lib/libpowerpc.o
                0x00000000fe006794                disable_interrupts
 .text.interrupt_init
                0x00000000fe0067a8       0x5c arch/powerpc/lib/libpowerpc.o
                0x00000000fe0067a8                interrupt_init
 .text.timer_interrupt
                0x00000000fe006804       0x54 arch/powerpc/lib/libpowerpc.o
                0x00000000fe006804                timer_interrupt
 .text.get_timer
                0x00000000fe006858       0x30 arch/powerpc/lib/libpowerpc.o
                0x00000000fe006858                get_timer
 .text.usec2ticks
                0x00000000fe006888       0x84 arch/powerpc/lib/libpowerpc.o
                0x00000000fe006888                usec2ticks
 .text.__udelay
                0x00000000fe00690c       0x24 arch/powerpc/lib/libpowerpc.o
                0x00000000fe00690c                __udelay
 .text.init_timebase
                0x00000000fe006930       0x14 arch/powerpc/lib/libpowerpc.o
                0x00000000fe006930                init_timebase
 .text.print_num
                0x00000000fe006944       0x40 common/libcommon.o
 .text.print_mhz
                0x00000000fe006984       0x50 common/libcommon.o
 .text.print_eth
                0x00000000fe0069d4       0x70 common/libcommon.o
 .text.do_bdinfo
                0x00000000fe006a44       0xf8 common/libcommon.o
                0x00000000fe006a44                do_bdinfo
 .text.do_go_exec
                0x00000000fe006b3c       0x30 common/libcommon.o
                0x00000000fe006b3c                do_go_exec
 .text.do_go    0x00000000fe006b6c       0xa8 common/libcommon.o
                0x00000000fe006b6c                do_go
 .text.do_imls  0x00000000fe006c14      0x134 common/libcommon.o
 .text.image_info
                0x00000000fe006d48       0xec common/libcommon.o
 .text.do_iminfo
                0x00000000fe006e34       0xb4 common/libcommon.o
                0x00000000fe006e34                do_iminfo
 .text.do_bootd
                0x00000000fe006ee8       0x4c common/libcommon.o
                0x00000000fe006ee8                do_bootd
 .text.do_bootm_rtems
                0x00000000fe006f34       0x6c common/libcommon.o
 .text.do_bootm_netbsd
                0x00000000fe006fa0      0x19c common/libcommon.o
 .text.bootm_start
                0x00000000fe00713c      0x470 common/libcommon.o
 .text.bootm_load_os
                0x00000000fe0075ac      0x204 common/libcommon.o
 .text.__arch_preboot_os
                0x00000000fe0077b0        0x4 common/libcommon.o
                0x00000000fe0077b0                arch_preboot_os
                0x00000000fe0077b0                __arch_preboot_os
 .text.do_bootm_subcommand
                0x00000000fe0077b4      0x2f8 common/libcommon.o
                0x00000000fe0077b4                do_bootm_subcommand
 .text.do_bootm
                0x00000000fe007aac      0x318 common/libcommon.o
                0x00000000fe007aac                do_bootm
 .text.bootm_maybe_autostart
                0x00000000fe007dc4       0xa4 common/libcommon.o
                0x00000000fe007dc4                bootm_maybe_autostart
 .text.do_coninfo
                0x00000000fe007e68      0x148 common/libcommon.o
                0x00000000fe007e68                do_coninfo
 .text.cnvrt2   0x00000000fe007fb0       0x54 common/libcommon.o
 .text.mk_date  0x00000000fe008004      0x278 common/libcommon.o
                0x00000000fe008004                mk_date
 .text.do_date  0x00000000fe00827c      0x130 common/libcommon.o
                0x00000000fe00827c                do_date
 .text.common_diskboot
                0x00000000fe0083ac      0x278 common/libcommon.o
                0x00000000fe0083ac                common_diskboot
 .text.do_echo  0x00000000fe008624      0x13c common/libcommon.o
                0x00000000fe008624                do_echo
 .text.do_exit  0x00000000fe008760       0x44 common/libcommon.o
                0x00000000fe008760                do_exit
 .text.do_ext2load
                0x00000000fe0087a4       0x2c common/libcommon.o
                0x00000000fe0087a4                do_ext2load
 .text.do_ext2ls
                0x00000000fe0087d0       0x2c common/libcommon.o
                0x00000000fe0087d0                do_ext2ls
 .text.do_ext_load
                0x00000000fe0087fc      0x28c common/libcommon.o
                0x00000000fe0087fc                do_ext_load
 .text.do_ext_ls
                0x00000000fe008a88      0x10c common/libcommon.o
                0x00000000fe008a88                do_ext_ls
 .text.fdt_valid
                0x00000000fe008b94       0xfc common/libcommon.o
 .text.print_data
                0x00000000fe008c90      0x218 common/libcommon.o
 .text.set_working_fdt_addr
                0x00000000fe008ea8       0x50 common/libcommon.o
                0x00000000fe008ea8                set_working_fdt_addr
 .text.do_fdt   0x00000000fe008ef8      0xddc common/libcommon.o
                0x00000000fe008ef8                do_fdt
 .text.flash_fill_sect_ranges
                0x00000000fe009cd4      0x1b8 common/libcommon.o
 .text.abbrev_spec
                0x00000000fe009e8c      0x204 common/libcommon.o
 .text.do_flinfo
                0x00000000fe00a090       0x94 common/libcommon.o
                0x00000000fe00a090                do_flinfo
 .text.flash_sect_roundb
                0x00000000fe00a124       0xc8 common/libcommon.o
                0x00000000fe00a124                flash_sect_roundb
 .text.addr_spec
                0x00000000fe00a1ec      0x128 common/libcommon.o
 .text.flash_sect_erase
                0x00000000fe00a314       0xbc common/libcommon.o
                0x00000000fe00a314                flash_sect_erase
 .text.do_flerase
                0x00000000fe00a3d0      0x298 common/libcommon.o
                0x00000000fe00a3d0                do_flerase
 .text.flash_sect_protect
                0x00000000fe00a668      0x14c common/libcommon.o
                0x00000000fe00a668                flash_sect_protect
 .text.do_protect
                0x00000000fe00a7b4      0x498 common/libcommon.o
                0x00000000fe00a7b4                do_protect
 .text.do_help  0x00000000fe00ac4c       0x64 common/libcommon.o
                0x00000000fe00ac4c                do_help
 .text.get_alen
                0x00000000fe00acb0       0x70 common/libcommon.o
 .text.do_i2c   0x00000000fe00ad20       0xa8 common/libcommon.o
 .text.do_i2c_reset
                0x00000000fe00adc8       0x30 common/libcommon.o
 .text.do_i2c_read
                0x00000000fe00adf8      0x104 common/libcommon.o
 .text.do_i2c_probe
                0x00000000fe00aefc       0xb4 common/libcommon.o
 .text.do_i2c_md
                0x00000000fe00afb0      0x270 common/libcommon.o
 .text.mod_i2c_mem
                0x00000000fe00b220      0x298 common/libcommon.o
 .text.do_i2c_nm
                0x00000000fe00b4b8       0x38 common/libcommon.o
 .text.do_i2c_mm
                0x00000000fe00b4f0       0x38 common/libcommon.o
 .text.do_i2c_mw
                0x00000000fe00b528      0x154 common/libcommon.o
 .text.do_i2c_loop
                0x00000000fe00b67c      0x130 common/libcommon.o
 .text.do_i2c_crc
                0x00000000fe00b7ac      0x160 common/libcommon.o
 .text.do_i2c_bus_speed
                0x00000000fe00b90c       0x94 common/libcommon.o
 .text.evalstr  0x00000000fe00b9a0       0x38 common/libcommon.o
 .text.evalexp  0x00000000fe00b9d8       0x9c common/libcommon.o
 .text.binary_test
                0x00000000fe00ba74      0x220 common/libcommon.o
                0x00000000fe00ba74                binary_test
 .text.do_itest
                0x00000000fe00bc94       0xbc common/libcommon.o
                0x00000000fe00bc94                do_itest
 .text.bin_data_init
                0x00000000fe00bd50       0x40 common/libcommon.o
 .text.bin_data_char
                0x00000000fe00bd90       0x48 common/libcommon.o
 .text.load_serial_ymodem
                0x00000000fe00bdd8      0x154 common/libcommon.o
 .text.getcxmodem
                0x00000000fe00bf2c       0x34 common/libcommon.o
 .text.load_serial
                0x00000000fe00bf60      0x2bc common/libcommon.o
 .text.do_load_serial
                0x00000000fe00c21c      0x1d0 common/libcommon.o
                0x00000000fe00c21c                do_load_serial
 .text.send_pad
                0x00000000fe00c3ec       0x68 common/libcommon.o
                0x00000000fe00c3ec                send_pad
 .text.ktrans   0x00000000fe00c454       0x28 common/libcommon.o
                0x00000000fe00c454                ktrans
 .text.chk1     0x00000000fe00c47c       0x38 common/libcommon.o
                0x00000000fe00c47c                chk1
 .text.s1_sendpacket
                0x00000000fe00c4b4       0x48 common/libcommon.o
                0x00000000fe00c4b4                s1_sendpacket
 .text.send_ack
                0x00000000fe00c4fc       0x90 common/libcommon.o
                0x00000000fe00c4fc                send_ack
 .text.send_nack
                0x00000000fe00c58c       0x90 common/libcommon.o
                0x00000000fe00c58c                send_nack
 .text.k_data_init
                0x00000000fe00c61c       0x48 common/libcommon.o
                0x00000000fe00c61c                k_data_init
 .text.k_data_save
                0x00000000fe00c664       0x54 common/libcommon.o
                0x00000000fe00c664                k_data_save
 .text.k_data_restore
                0x00000000fe00c6b8       0x54 common/libcommon.o
                0x00000000fe00c6b8                k_data_restore
 .text.k_data_char
                0x00000000fe00c70c       0x98 common/libcommon.o
                0x00000000fe00c70c                k_data_char
 .text.handle_send_packet
                0x00000000fe00c7a4      0x2b0 common/libcommon.o
                0x00000000fe00c7a4                handle_send_packet
 .text.do_load_serial_bin
                0x00000000fe00ca54      0x504 common/libcommon.o
                0x00000000fe00ca54                do_load_serial_bin
 .text.extract_range
                0x00000000fe00cf58      0x148 common/libcommon.o
 .text.mdio_write_ranges
                0x00000000fe00d0a0      0x124 common/libcommon.o
                0x00000000fe00d0a0                mdio_write_ranges
 .text.mdio_read_ranges
                0x00000000fe00d1c4      0x194 common/libcommon.o
                0x00000000fe00d1c4                mdio_read_ranges
 .text.extract_reg_range
                0x00000000fe00d358       0xe0 common/libcommon.o
                0x00000000fe00d358                extract_reg_range
 .text.extract_phy_range
                0x00000000fe00d438       0xdc common/libcommon.o
                0x00000000fe00d438                extract_phy_range
 .text.do_mdio  0x00000000fe00d514      0x25c common/libcommon.o
 .text.do_mem_crc
                0x00000000fe00d770       0xf0 common/libcommon.o
                0x00000000fe00d770                do_mem_crc
 .text.do_mem_base
                0x00000000fe00d860       0x60 common/libcommon.o
                0x00000000fe00d860                do_mem_base
 .text.do_mem_mtest
                0x00000000fe00d8c0      0x258 common/libcommon.o
                0x00000000fe00d8c0                do_mem_mtest
 .text.do_mem_loop
                0x00000000fe00db18      0x178 common/libcommon.o
                0x00000000fe00db18                do_mem_loop
 .text.do_mem_cmp
                0x00000000fe00dc90      0x198 common/libcommon.o
                0x00000000fe00dc90                do_mem_cmp
 .text.do_mem_mw
                0x00000000fe00de28      0x124 common/libcommon.o
                0x00000000fe00de28                do_mem_mw
 .text.do_mem_cp
                0x00000000fe00df4c      0x19c common/libcommon.o
                0x00000000fe00df4c                do_mem_cp
 .text.mod_mem  0x00000000fe00e0e8      0x200 common/libcommon.o
 .text.do_mem_nm
                0x00000000fe00e2e8       0x38 common/libcommon.o
                0x00000000fe00e2e8                do_mem_nm
 .text.do_mem_mm
                0x00000000fe00e320       0x38 common/libcommon.o
                0x00000000fe00e320                do_mem_mm
 .text.do_mem_md
                0x00000000fe00e358      0x120 common/libcommon.o
                0x00000000fe00e358                do_mem_md
 .text.do_mii   0x00000000fe00e478      0x8bc common/libcommon.o
 .text.do_sleep
                0x00000000fe00ed34       0xa8 common/libcommon.o
                0x00000000fe00ed34                do_sleep
 .text.mtd_part_info
                0x00000000fe00eddc       0xd4 common/libcommon.o
 .text.index_partitions
                0x00000000fe00eeb0       0xf0 common/libcommon.o
 .text.memsize_format
                0x00000000fe00efa0       0x80 common/libcommon.o
 .text.current_save
                0x00000000fe00f020       0xbc common/libcommon.o
 .text.part_sort_add
                0x00000000fe00f0dc      0x17c common/libcommon.o
 .text.part_delall
                0x00000000fe00f258       0x8c common/libcommon.o
 .text.device_delall
                0x00000000fe00f2e4       0xb8 common/libcommon.o
 .text.mtd_devices_init
                0x00000000fe00f39c       0x50 common/libcommon.o
 .text.device_del
                0x00000000fe00f3ec       0xb8 common/libcommon.o
 .text.memsize_parse
                0x00000000fe00f4a4       0x84 common/libcommon.o
 .text.get_mtd_info
                0x00000000fe00f528       0x9c common/libcommon.o
 .text.part_validate
                0x00000000fe00f5c4      0x350 common/libcommon.o
 .text.generate_mtdparts_save
                0x00000000fe00f914      0x358 common/libcommon.o
 .text.mtd_device_validate
                0x00000000fe00fc6c       0x54 common/libcommon.o
                0x00000000fe00fc6c                mtd_device_validate
 .text.device_find
                0x00000000fe00fcc0       0x74 common/libcommon.o
                0x00000000fe00fcc0                device_find
 .text.device_parse
                0x00000000fe00fd34      0x5e0 common/libcommon.o
 .text.mtd_id_parse
                0x00000000fe010314      0x164 common/libcommon.o
                0x00000000fe010314                mtd_id_parse
 .text.find_dev_and_part
                0x00000000fe010478      0x21c common/libcommon.o
                0x00000000fe010478                find_dev_and_part
 .text.mtdparts_init
                0x00000000fe010694      0x6c4 common/libcommon.o
                0x00000000fe010694                mtdparts_init
 .text.do_mtdparts
                0x00000000fe010d58      0x6a4 common/libcommon.o
                0x00000000fe010d58                do_mtdparts
 .text.do_chpart
                0x00000000fe0113fc       0xf0 common/libcommon.o
                0x00000000fe0113fc                do_chpart
 .text.set_dev  0x00000000fe0114ec       0x8c common/libcommon.o
 .text.nand_print_and_set_info
                0x00000000fe011578       0xfc common/libcommon.o
 .text.nand_load_image
                0x00000000fe011674      0x1dc common/libcommon.o
 .text.do_nandboot
                0x00000000fe011850      0x2b8 common/libcommon.o
                0x00000000fe011850                do_nandboot
 .text.arg_off  0x00000000fe011b08      0x16c common/libcommon.o
 .text.arg_off_size
                0x00000000fe011c74      0x1c8 common/libcommon.o
 .text.do_nand  0x00000000fe011e3c      0xc1c common/libcommon.o
                0x00000000fe011e3c                do_nand
 .text.do_ping  0x00000000fe012a58       0x9c common/libcommon.o
                0x00000000fe012a58                do_ping
 .text.netboot_common
                0x00000000fe012af4      0x2c0 common/libcommon.o
 .text.do_nfs   0x00000000fe012db4       0x28 common/libcommon.o
                0x00000000fe012db4                do_nfs
 .text.do_tftpb
                0x00000000fe012ddc       0x28 common/libcommon.o
                0x00000000fe012ddc                do_tftpb
 .text.do_bootp
                0x00000000fe012e04       0x28 common/libcommon.o
                0x00000000fe012e04                do_bootp
 .text.do_env   0x00000000fe012e2c       0xa8 common/libcommon.o
 .text.do_env_delete
                0x00000000fe012ed4       0x38 common/libcommon.o
 .text.do_env_import
                0x00000000fe012f0c      0x2bc common/libcommon.o
 .text.do_env_default
                0x00000000fe0131c8       0xc8 common/libcommon.o
 .text.do_env_save
                0x00000000fe013290       0x4c common/libcommon.o
                0x00000000fe013290                do_env_save
 .text.env_print
                0x00000000fe0132dc       0xc0 common/libcommon.o
 .text.do_env_print
                0x00000000fe01339c       0xd0 common/libcommon.o
                0x00000000fe01339c                do_env_print
 .text.get_env_id
                0x00000000fe01346c       0x2c common/libcommon.o
                0x00000000fe01346c                get_env_id
 .text.env_check_apply
                0x00000000fe013498      0x24c common/libcommon.o
                0x00000000fe013498                env_check_apply
 .text._do_env_set
                0x00000000fe0136e4      0x218 common/libcommon.o
                0x00000000fe0136e4                _do_env_set
 .text.do_env_set
                0x00000000fe0138fc       0x40 common/libcommon.o
                0x00000000fe0138fc                do_env_set
 .text.do_env_export
                0x00000000fe01393c      0x380 common/libcommon.o
 .text.setenv   0x00000000fe013cbc       0x7c common/libcommon.o
                0x00000000fe013cbc                setenv
 .text.envmatch
                0x00000000fe013d38       0xa8 common/libcommon.o
                0x00000000fe013d38                envmatch
 .text.getenv_f
                0x00000000fe013de0      0x12c common/libcommon.o
                0x00000000fe013de0                getenv_f
 .text.getenv   0x00000000fe013f0c       0x94 common/libcommon.o
                0x00000000fe013f0c                getenv
 .text.getenv_ulong
                0x00000000fe013fa0       0x5c common/libcommon.o
                0x00000000fe013fa0                getenv_ulong
 .text.do_env_edit
                0x00000000fe013ffc       0xd8 common/libcommon.o
                0x00000000fe013ffc                do_env_edit
 .text.pci_cfg_write
                0x00000000fe0140d4       0x50 common/libcommon.o
 .text.pci_cfg_modify
                0x00000000fe014124      0x1c0 common/libcommon.o
 .text.pci_header_show_brief
                0x00000000fe0142e4       0xa4 common/libcommon.o
                0x00000000fe0142e4                pci_header_show_brief
 .text.pci_header_show
                0x00000000fe014388      0x83c common/libcommon.o
                0x00000000fe014388                pci_header_show
 .text.pciinfo  0x00000000fe014bc4      0x1e8 common/libcommon.o
                0x00000000fe014bc4                pciinfo
 .text.do_pci   0x00000000fe014dac      0x494 common/libcommon.o
                0x00000000fe014dac                do_pci
 .text.__sata_initialize
                0x00000000fe015240      0x140 common/libcommon.o
                0x00000000fe015240                sata_initialize
                0x00000000fe015240                __sata_initialize
 .text.do_sata  0x00000000fe015380      0x4a8 common/libcommon.o
                0x00000000fe015380                do_sata
 .text.sata_get_dev
                0x00000000fe015828       0x40 common/libcommon.o
                0x00000000fe015828                sata_get_dev
 .text.source   0x00000000fe015868      0x130 common/libcommon.o
                0x00000000fe015868                source
 .text.do_source
                0x00000000fe015998       0x6c common/libcommon.o
                0x00000000fe015998                do_source
 .text.do_false
                0x00000000fe015a04        0x8 common/libcommon.o
                0x00000000fe015a04                do_false
 .text.do_true  0x00000000fe015a0c        0x8 common/libcommon.o
                0x00000000fe015a0c                do_true
 .text.do_test  0x00000000fe015a14      0x5cc common/libcommon.o
                0x00000000fe015a14                do_test
 .text.do_usbboot
                0x00000000fe015fe0       0x34 common/libcommon.o
                0x00000000fe015fe0                do_usbboot
 .text.usb_get_class_desc
                0x00000000fe016014       0xc8 common/libcommon.o
                0x00000000fe016014                usb_get_class_desc
 .text.usb_display_class_sub
                0x00000000fe0160dc      0x1cc common/libcommon.o
                0x00000000fe0160dc                usb_display_class_sub
 .text.usb_display_string
                0x00000000fe0162a8       0x64 common/libcommon.o
                0x00000000fe0162a8                usb_display_string
 .text.usb_display_desc
                0x00000000fe01630c      0x12c common/libcommon.o
                0x00000000fe01630c                usb_display_desc
 .text.usb_display_conf_desc
                0x00000000fe016438       0xc0 common/libcommon.o
                0x00000000fe016438                usb_display_conf_desc
 .text.usb_display_if_desc
                0x00000000fe0164f8       0xa8 common/libcommon.o
                0x00000000fe0164f8                usb_display_if_desc
 .text.usb_display_ep_desc
                0x00000000fe0165a0       0xe4 common/libcommon.o
                0x00000000fe0165a0                usb_display_ep_desc
 .text.usb_display_config
                0x00000000fe016684       0xe4 common/libcommon.o
                0x00000000fe016684                usb_display_config
 .text.usb_show_tree_graph
                0x00000000fe016768      0x2b4 common/libcommon.o
                0x00000000fe016768                usb_show_tree_graph
 .text.usb_show_tree
                0x00000000fe016a1c       0x44 common/libcommon.o
                0x00000000fe016a1c                usb_show_tree
 .text.do_usb   0x00000000fe016a60      0x5a8 common/libcommon.o
                0x00000000fe016a60                do_usb
 .text.do_version
                0x00000000fe017008       0x4c common/libcommon.o
                0x00000000fe017008                do_version
 .text.do_imgextract
                0x00000000fe017054      0x2e0 common/libcommon.o
                0x00000000fe017054                do_imgextract
 .text.find_cmd_tbl
                0x00000000fe017334      0x100 common/libcommon.o
                0x00000000fe017334                find_cmd_tbl
 .text.find_cmd
                0x00000000fe017434       0x4c common/libcommon.o
                0x00000000fe017434                find_cmd
 .text.cmd_usage
                0x00000000fe017480       0x7c common/libcommon.o
                0x00000000fe017480                cmd_usage
 .text._do_help
                0x00000000fe0174fc      0x238 common/libcommon.o
                0x00000000fe0174fc                _do_help
 .text.var_complete
                0x00000000fe017734       0x94 common/libcommon.o
                0x00000000fe017734                var_complete
 .text.cmd_auto_complete
                0x00000000fe0177c8      0x604 common/libcommon.o
                0x00000000fe0177c8                cmd_auto_complete
 .text.cmd_get_data_size
                0x00000000fe017dcc       0xa4 common/libcommon.o
                0x00000000fe017dcc                cmd_get_data_size
 .text.cmd_process
                0x00000000fe017e70      0x104 common/libcommon.o
                0x00000000fe017e70                cmd_process
 .text.console_setfile
                0x00000000fe017f74       0xe0 common/libcommon.o
 .text.fgetc    0x00000000fe018054       0x54 common/libcommon.o
                0x00000000fe018054                fgetc
 .text.ftstc    0x00000000fe0180a8       0x54 common/libcommon.o
                0x00000000fe0180a8                ftstc
 .text.fputc    0x00000000fe0180fc       0x50 common/libcommon.o
                0x00000000fe0180fc                fputc
 .text.fputs    0x00000000fe01814c       0x50 common/libcommon.o
                0x00000000fe01814c                fputs
 .text.getc     0x00000000fe01819c       0x44 common/libcommon.o
                0x00000000fe01819c                getc
 .text.tstc     0x00000000fe0181e0       0x44 common/libcommon.o
                0x00000000fe0181e0                tstc
 .text.putc     0x00000000fe018224       0x48 common/libcommon.o
                0x00000000fe018224                putc
 .text.puts     0x00000000fe01826c       0x48 common/libcommon.o
                0x00000000fe01826c                puts
 .text.printf   0x00000000fe0182b4       0x94 common/libcommon.o
                0x00000000fe0182b4                printf
 .text.vprintf  0x00000000fe018348       0x5c common/libcommon.o
                0x00000000fe018348                vprintf
 .text.ctrlc    0x00000000fe0183a4       0x88 common/libcommon.o
                0x00000000fe0183a4                ctrlc
 .text.had_ctrlc
                0x00000000fe01842c       0x2c common/libcommon.o
                0x00000000fe01842c                had_ctrlc
 .text.clear_ctrlc
                0x00000000fe018458       0x30 common/libcommon.o
                0x00000000fe018458                clear_ctrlc
 .text.search_device
                0x00000000fe018488       0x48 common/libcommon.o
                0x00000000fe018488                search_device
 .text.console_assign
                0x00000000fe0184d0       0x6c common/libcommon.o
                0x00000000fe0184d0                console_assign
 .text.console_init_f
                0x00000000fe01853c       0x10 common/libcommon.o
                0x00000000fe01853c                console_init_f
 .text.stdio_print_current_devices
                0x00000000fe01854c       0xbc common/libcommon.o
                0x00000000fe01854c                stdio_print_current_devices
 .text.console_init_r
                0x00000000fe018608      0x128 common/libcommon.o
                0x00000000fe018608                console_init_r
 .text.sbrk     0x00000000fe018730       0x94 common/libcommon.o
                0x00000000fe018730                sbrk
 .text.mem_malloc_init
                0x00000000fe0187c4       0x54 common/libcommon.o
                0x00000000fe0187c4                mem_malloc_init
 .text.malloc_trim
                0x00000000fe018818      0x10c common/libcommon.o
                0x00000000fe018818                malloc_trim
 .text.free     0x00000000fe018924      0x2a8 common/libcommon.o
                0x00000000fe018924                free
 .text.malloc   0x00000000fe018bcc      0x770 common/libcommon.o
                0x00000000fe018bcc                malloc
 .text.calloc   0x00000000fe01933c      0x120 common/libcommon.o
                0x00000000fe01933c                calloc
 .text.memalign
                0x00000000fe01945c      0x15c common/libcommon.o
                0x00000000fe01945c                memalign
 .text.realloc  0x00000000fe0195b8      0x594 common/libcommon.o
                0x00000000fe0195b8                realloc
 .text.__env_get_char_spec
                0x00000000fe019b4c        0xc common/libcommon.o
                0x00000000fe019b4c                env_get_char_spec
 .text.env_get_addr
                0x00000000fe019b58       0x44 common/libcommon.o
                0x00000000fe019b58                env_get_addr
 .text.env_get_char_memory
                0x00000000fe019b9c       0x24 common/libcommon.o
                0x00000000fe019b9c                env_get_char_memory
 .text.env_get_char
                0x00000000fe019bc0       0x5c common/libcommon.o
                0x00000000fe019bc0                env_get_char
 .text.set_default_env
                0x00000000fe019c1c       0xc0 common/libcommon.o
                0x00000000fe019c1c                set_default_env
 .text.set_default_vars
                0x00000000fe019cdc       0x50 common/libcommon.o
                0x00000000fe019cdc                set_default_vars
 .text.env_import
                0x00000000fe019d2c       0xe4 common/libcommon.o
                0x00000000fe019d2c                env_import
 .text.env_relocate
                0x00000000fe019e10       0x50 common/libcommon.o
                0x00000000fe019e10                env_relocate
 .text.env_complete
                0x00000000fe019e60      0x158 common/libcommon.o
                0x00000000fe019e60                env_complete
 .text.env_init
                0x00000000fe019fb8       0x84 common/libcommon.o
                0x00000000fe019fb8                env_init
 .text.saveenv  0x00000000fe01a03c      0x198 common/libcommon.o
                0x00000000fe01a03c                saveenv
 .text.env_relocate_spec
                0x00000000fe01a1d4       0x28 common/libcommon.o
                0x00000000fe01a1d4                env_relocate_spec
 .text.dummy    0x00000000fe01a1fc        0x4 common/libcommon.o
 .text.get_version
                0x00000000fe01a200        0x8 common/libcommon.o
                0x00000000fe01a200                get_version
 .text.jumptable_init
                0x00000000fe01a208      0x180 common/libcommon.o
                0x00000000fe01a208                jumptable_init
 .text.write_cell
                0x00000000fe01a388       0x50 common/libcommon.o
 .text.of_bus_default_map
                0x00000000fe01a3d8      0x118 common/libcommon.o
 .text.of_bus_default_count_cells
                0x00000000fe01a4f0       0xc0 common/libcommon.o
 .text.get_cells_len
                0x00000000fe01a5b0       0x54 common/libcommon.o
 .text.of_bus_default_translate
                0x00000000fe01a604       0xdc common/libcommon.o
 .text.fdt_find_and_setprop
                0x00000000fe01a6e0       0xc0 common/libcommon.o
                0x00000000fe01a6e0                fdt_find_and_setprop
 .text.fdt_initrd
                0x00000000fe01a7a0      0x204 common/libcommon.o
                0x00000000fe01a7a0                fdt_initrd
 .text.fdt_chosen
                0x00000000fe01a9a4      0x244 common/libcommon.o
                0x00000000fe01a9a4                fdt_chosen
 .text.do_fixup_by_path
                0x00000000fe01abe8       0x68 common/libcommon.o
                0x00000000fe01abe8                do_fixup_by_path
 .text.do_fixup_by_prop
                0x00000000fe01ac50      0x11c common/libcommon.o
                0x00000000fe01ac50                do_fixup_by_prop
 .text.do_fixup_by_prop_u32
                0x00000000fe01ad6c       0x34 common/libcommon.o
                0x00000000fe01ad6c                do_fixup_by_prop_u32
 .text.do_fixup_by_compat
                0x00000000fe01ada0       0xf4 common/libcommon.o
                0x00000000fe01ada0                do_fixup_by_compat
 .text.do_fixup_by_compat_u32
                0x00000000fe01ae94       0x34 common/libcommon.o
                0x00000000fe01ae94                do_fixup_by_compat_u32
 .text.fdt_fixup_memory_banks
                0x00000000fe01aec8      0x238 common/libcommon.o
                0x00000000fe01aec8                fdt_fixup_memory_banks
 .text.fdt_fixup_memory
                0x00000000fe01b100       0x3c common/libcommon.o
                0x00000000fe01b100                fdt_fixup_memory
 .text.fdt_fixup_ethernet
                0x00000000fe01b13c      0x1c8 common/libcommon.o
                0x00000000fe01b13c                fdt_fixup_ethernet
 .text.fdt_resize
                0x00000000fe01b304       0xf0 common/libcommon.o
                0x00000000fe01b304                fdt_resize
 .text.flash_protect
                0x00000000fe01b3f4      0x150 common/libcommon.o
                0x00000000fe01b3f4                flash_protect
 .text.addr2info
                0x00000000fe01b544       0x80 common/libcommon.o
                0x00000000fe01b544                addr2info
 .text.flash_write
                0x00000000fe01b5c4      0x198 common/libcommon.o
                0x00000000fe01b5c4                flash_write
 .text.flash_perror
                0x00000000fe01b75c      0x118 common/libcommon.o
                0x00000000fe01b75c                flash_perror
 .text.b_reset  0x00000000fe01b874       0x24 common/libcommon.o
 .text.static_get
                0x00000000fe01b898       0x24 common/libcommon.o
 .text.static_peek
                0x00000000fe01b8bc        0xc common/libcommon.o
 .text.file_peek
                0x00000000fe01b8c8        0xc common/libcommon.o
 .text.setup_string_in_str
                0x00000000fe01b8d4       0x44 common/libcommon.o
 .text.is_assignment
                0x00000000fe01b918       0x74 common/libcommon.o
 .text.syntax_err
                0x00000000fe01b98c       0x34 common/libcommon.o
 .text.do_showvar
                0x00000000fe01b9c0      0x1a8 common/libcommon.o
                0x00000000fe01b9c0                do_showvar
 .text.xmalloc  0x00000000fe01bb68       0x44 common/libcommon.o
 .text.file_get
                0x00000000fe01bbac      0x25c common/libcommon.o
 .text.free_pipe_list
                0x00000000fe01be08      0x164 common/libcommon.o
 .text.b_free   0x00000000fe01bf6c       0x40 common/libcommon.o
 .text.xrealloc
                0x00000000fe01bfac       0x44 common/libcommon.o
 .text.done_command
                0x00000000fe01bff0       0xb0 common/libcommon.o
 .text.b_addchr
                0x00000000fe01c0a0       0xbc common/libcommon.o
 .text.b_addqchr
                0x00000000fe01c15c       0x7c common/libcommon.o
 .text.get_local_var
                0x00000000fe01c1d8       0xd8 common/libcommon.o
                0x00000000fe01c1d8                get_local_var
 .text.set_local_var
                0x00000000fe01c2b0      0x218 common/libcommon.o
                0x00000000fe01c2b0                set_local_var
 .text.insert_var_value_sub
                0x00000000fe01c4c8      0x37c common/libcommon.o
 .text.insert_var_value
                0x00000000fe01c844       0x24 common/libcommon.o
 .text.new_pipe
                0x00000000fe01c868       0x3c common/libcommon.o
                0x00000000fe01c868                new_pipe
 .text.initialize_context
                0x00000000fe01c8a4       0x64 common/libcommon.o
 .text.done_pipe
                0x00000000fe01c908       0x78 common/libcommon.o
 .text.reserved_word
                0x00000000fe01c980      0x1d4 common/libcommon.o
                0x00000000fe01c980                reserved_word
 .text.done_word
                0x00000000fe01cb54      0x210 common/libcommon.o
 .text.mapset   0x00000000fe01cd64       0x44 common/libcommon.o
                0x00000000fe01cd64                mapset
 .text.update_ifs_map
                0x00000000fe01cda8       0xa8 common/libcommon.o
                0x00000000fe01cda8                update_ifs_map
 .text.parse_string_outer
                0x00000000fe01ce50      0x100 common/libcommon.o
                0x00000000fe01ce50                parse_string_outer
 .text.run_list_real
                0x00000000fe01cf50      0x960 common/libcommon.o
 .text.parse_stream_outer
                0x00000000fe01d8b0      0x748 common/libcommon.o
 .text.parse_file_outer
                0x00000000fe01dff8       0x5c common/libcommon.o
                0x00000000fe01dff8                parse_file_outer
 .text.u_boot_hush_start
                0x00000000fe01e054       0x74 common/libcommon.o
                0x00000000fe01e054                u_boot_hush_start
 .text.hwconfig_parse
                0x00000000fe01e0c8      0x1a8 common/libcommon.o
 .text.__hwconfig
                0x00000000fe01e270      0x104 common/libcommon.o
 .text.hwconfig_f
                0x00000000fe01e374       0x34 common/libcommon.o
                0x00000000fe01e374                hwconfig_f
 .text.hwconfig_arg_f
                0x00000000fe01e3a8       0x20 common/libcommon.o
                0x00000000fe01e3a8                hwconfig_arg_f
 .text.hwconfig_arg_cmp_f
                0x00000000fe01e3c8       0x80 common/libcommon.o
                0x00000000fe01e3c8                hwconfig_arg_cmp_f
 .text.hwconfig_sub_f
                0x00000000fe01e448       0x74 common/libcommon.o
                0x00000000fe01e448                hwconfig_sub_f
 .text.hwconfig_subarg_f
                0x00000000fe01e4bc       0x78 common/libcommon.o
                0x00000000fe01e4bc                hwconfig_subarg_f
 .text.hwconfig_subarg_cmp_f
                0x00000000fe01e534       0x80 common/libcommon.o
                0x00000000fe01e534                hwconfig_subarg_cmp_f
 .text.fdt_error
                0x00000000fe01e5b4       0x50 common/libcommon.o
 .text.image_check_hcrc
                0x00000000fe01e604       0x60 common/libcommon.o
                0x00000000fe01e604                image_check_hcrc
 .text.image_check_dcrc
                0x00000000fe01e664       0x4c common/libcommon.o
                0x00000000fe01e664                image_check_dcrc
 .text.image_multi_count
                0x00000000fe01e6b0       0x30 common/libcommon.o
                0x00000000fe01e6b0                image_multi_count
 .text.image_multi_getimg
                0x00000000fe01e6e0       0xdc common/libcommon.o
                0x00000000fe01e6e0                image_multi_getimg
 .text.getenv_yesno
                0x00000000fe01e7bc       0x40 common/libcommon.o
                0x00000000fe01e7bc                getenv_yesno
 .text.getenv_bootm_low
                0x00000000fe01e7fc       0x54 common/libcommon.o
                0x00000000fe01e7fc                getenv_bootm_low
 .text.getenv_bootm_size
                0x00000000fe01e850       0x78 common/libcommon.o
                0x00000000fe01e850                getenv_bootm_size
 .text.getenv_bootm_mapsize
                0x00000000fe01e8c8       0x50 common/libcommon.o
                0x00000000fe01e8c8                getenv_bootm_mapsize
 .text.memmove_wd
                0x00000000fe01e918       0x28 common/libcommon.o
                0x00000000fe01e918                memmove_wd
 .text.genimg_print_size
                0x00000000fe01e940       0x54 common/libcommon.o
                0x00000000fe01e940                genimg_print_size
 .text.get_table_entry_name
                0x00000000fe01e994       0x3c common/libcommon.o
                0x00000000fe01e994                get_table_entry_name
 .text.genimg_get_os_name
                0x00000000fe01e9d0       0x3c common/libcommon.o
                0x00000000fe01e9d0                genimg_get_os_name
 .text.genimg_get_arch_name
                0x00000000fe01ea0c       0x3c common/libcommon.o
                0x00000000fe01ea0c                genimg_get_arch_name
 .text.genimg_get_type_name
                0x00000000fe01ea48       0x3c common/libcommon.o
                0x00000000fe01ea48                genimg_get_type_name
 .text.genimg_get_comp_name
                0x00000000fe01ea84       0x3c common/libcommon.o
                0x00000000fe01ea84                genimg_get_comp_name
 .text.image_print_contents
                0x00000000fe01eac0      0x1d8 common/libcommon.o
                0x00000000fe01eac0                image_print_contents
 .text.genimg_get_format
                0x00000000fe01ec98       0x4c common/libcommon.o
                0x00000000fe01ec98                genimg_get_format
 .text.genimg_get_image
                0x00000000fe01ece4        0x4 common/libcommon.o
                0x00000000fe01ece4                genimg_get_image
 .text.genimg_has_config
                0x00000000fe01ece8        0x8 common/libcommon.o
                0x00000000fe01ece8                genimg_has_config
 .text.boot_get_ramdisk
                0x00000000fe01ecf0      0x284 common/libcommon.o
                0x00000000fe01ecf0                boot_get_ramdisk
 .text.boot_ramdisk_high
                0x00000000fe01ef74      0x18c common/libcommon.o
                0x00000000fe01ef74                boot_ramdisk_high
 .text.boot_fdt_add_mem_rsv_regions
                0x00000000fe01f100       0xd4 common/libcommon.o
                0x00000000fe01f100                boot_fdt_add_mem_rsv_regions
 .text.boot_relocate_fdt
                0x00000000fe01f1d4      0x1fc common/libcommon.o
                0x00000000fe01f1d4                boot_relocate_fdt
 .text.boot_get_fdt
                0x00000000fe01f3d0      0x2ac common/libcommon.o
                0x00000000fe01f3d0                boot_get_fdt
 .text.boot_get_cmdline
                0x00000000fe01f67c       0xbc common/libcommon.o
                0x00000000fe01f67c                boot_get_cmdline
 .text.boot_get_kbd
                0x00000000fe01f738       0x88 common/libcommon.o
                0x00000000fe01f738                boot_get_kbd
 .text.delete_char
                0x00000000fe01f7c0      0x14c common/libcommon.o
 .text.cread_add_char
                0x00000000fe01f90c      0x12c common/libcommon.o
 .text.cread_add_str
                0x00000000fe01fa38       0xa4 common/libcommon.o
 .text.__show_boot_progress
                0x00000000fe01fadc        0x4 common/libcommon.o
                0x00000000fe01fadc                __show_boot_progress
                0x00000000fe01fadc                show_boot_progress
 .text.readline_into_buffer
                0x00000000fe01fae0      0xb40 common/libcommon.o
                0x00000000fe01fae0                readline_into_buffer
 .text.readline
                0x00000000fe020620       0x40 common/libcommon.o
                0x00000000fe020620                readline
 .text.run_command
                0x00000000fe020660       0x24 common/libcommon.o
                0x00000000fe020660                run_command
 .text.run_command_list
                0x00000000fe020684       0x9c common/libcommon.o
                0x00000000fe020684                run_command_list
 .text.main_loop
                0x00000000fe020720      0x148 common/libcommon.o
                0x00000000fe020720                main_loop
 .text.do_run   0x00000000fe020868       0xc0 common/libcommon.o
                0x00000000fe020868                do_run
 .text.legacy_miiphy_read
                0x00000000fe020928       0x50 common/libcommon.o
 .text.legacy_miiphy_write
                0x00000000fe020978       0x3c common/libcommon.o
 .text.miiphy_get_dev_by_name
                0x00000000fe0209b4       0xa4 common/libcommon.o
                0x00000000fe0209b4                miiphy_get_dev_by_name
 .text.miiphy_init
                0x00000000fe020a58       0x3c common/libcommon.o
                0x00000000fe020a58                miiphy_init
 .text.mdio_alloc
                0x00000000fe020a94       0x50 common/libcommon.o
                0x00000000fe020a94                mdio_alloc
 .text.miiphy_register
                0x00000000fe020ae4      0x140 common/libcommon.o
                0x00000000fe020ae4                miiphy_register
 .text.mdio_register
                0x00000000fe020c24       0xdc common/libcommon.o
                0x00000000fe020c24                mdio_register
 .text.mdio_list_devices
                0x00000000fe020d00      0x110 common/libcommon.o
                0x00000000fe020d00                mdio_list_devices
 .text.miiphy_set_current_dev
                0x00000000fe020e10       0x64 common/libcommon.o
                0x00000000fe020e10                miiphy_set_current_dev
 .text.miiphy_get_active_dev
                0x00000000fe020e74       0x88 common/libcommon.o
 .text.mdio_get_current_dev
                0x00000000fe020efc       0x2c common/libcommon.o
                0x00000000fe020efc                mdio_get_current_dev
 .text.mdio_phydev_for_ethname
                0x00000000fe020f28       0xf0 common/libcommon.o
                0x00000000fe020f28                mdio_phydev_for_ethname
 .text.miiphy_get_current_dev
                0x00000000fe021018       0x40 common/libcommon.o
                0x00000000fe021018                miiphy_get_current_dev
 .text.miiphy_read
                0x00000000fe021058       0x8c common/libcommon.o
                0x00000000fe021058                miiphy_read
 .text.miiphy_write
                0x00000000fe0210e4       0x78 common/libcommon.o
                0x00000000fe0210e4                miiphy_write
 .text.miiphy_listdev
                0x00000000fe02115c       0xa0 common/libcommon.o
                0x00000000fe02115c                miiphy_listdev
 .text.miiphy_info
                0x00000000fe0211fc       0xe8 common/libcommon.o
                0x00000000fe0211fc                miiphy_info
 .text.miiphy_speed
                0x00000000fe0212e4       0xe8 common/libcommon.o
                0x00000000fe0212e4                miiphy_speed
 .text.miiphy_duplex
                0x00000000fe0213cc       0xe8 common/libcommon.o
                0x00000000fe0213cc                miiphy_duplex
 .text.miiphy_is_1000base_x
                0x00000000fe0214b4        0x8 common/libcommon.o
                0x00000000fe0214b4                miiphy_is_1000base_x
 .text.hex1_bin
                0x00000000fe0214bc       0x50 common/libcommon.o
 .text.hex2_bin
                0x00000000fe02150c       0x70 common/libcommon.o
 .text.srec_decode
                0x00000000fe02157c      0x304 common/libcommon.o
                0x00000000fe02157c                srec_decode
 .text.stdio_get_list
                0x00000000fe021880       0x2c common/libcommon.o
                0x00000000fe021880                stdio_get_list
 .text.stdio_get_by_name
                0x00000000fe0218ac       0x9c common/libcommon.o
                0x00000000fe0218ac                stdio_get_by_name
 .text.stdio_clone
                0x00000000fe021948       0x7c common/libcommon.o
                0x00000000fe021948                stdio_clone
 .text.stdio_register
                0x00000000fe0219c4       0x64 common/libcommon.o
                0x00000000fe0219c4                stdio_register
 .text.stdio_init
                0x00000000fe021a28       0xa0 common/libcommon.o
                0x00000000fe021a28                stdio_init
 .text.usb_set_maxpacket_ep
                0x00000000fe021ac8       0xb0 common/libcommon.o
 .text.usb_stop
                0x00000000fe021b78       0x60 common/libcommon.o
                0x00000000fe021b78                usb_stop
 .text.usb_disable_asynch
                0x00000000fe021bd8       0x3c common/libcommon.o
                0x00000000fe021bd8                usb_disable_asynch
 .text.usb_control_msg
                0x00000000fe021c14      0x13c common/libcommon.o
                0x00000000fe021c14                usb_control_msg
 .text.usb_get_descriptor
                0x00000000fe021d50       0x6c common/libcommon.o
 .text.usb_get_string
                0x00000000fe021dbc       0xd0 common/libcommon.o
 .text.usb_string_sub
                0x00000000fe021e8c      0x180 common/libcommon.o
 .text.usb_bulk_msg
                0x00000000fe02200c       0xdc common/libcommon.o
                0x00000000fe02200c                usb_bulk_msg
 .text.usb_maxpacket
                0x00000000fe0220e8       0x28 common/libcommon.o
                0x00000000fe0220e8                usb_maxpacket
 .text.usb_clear_halt
                0x00000000fe022110       0xd8 common/libcommon.o
                0x00000000fe022110                usb_clear_halt
 .text.usb_get_configuration_no
                0x00000000fe0221e8       0xd4 common/libcommon.o
                0x00000000fe0221e8                usb_get_configuration_no
 .text.usb_set_interface
                0x00000000fe0222bc      0x10c common/libcommon.o
                0x00000000fe0222bc                usb_set_interface
 .text.usb_string
                0x00000000fe0223c8      0x198 common/libcommon.o
                0x00000000fe0223c8                usb_string
 .text.usb_get_dev_index
                0x00000000fe022560       0x48 common/libcommon.o
                0x00000000fe022560                usb_get_dev_index
 .text.usb_alloc_new_device
                0x00000000fe0225a8       0x98 common/libcommon.o
                0x00000000fe0225a8                usb_alloc_new_device
 .text.usb_new_device
                0x00000000fe022640      0x5d0 common/libcommon.o
                0x00000000fe022640                usb_new_device
 .text.usb_init
                0x00000000fe022c10      0x134 common/libcommon.o
                0x00000000fe022c10                usb_init
 .text.usb_get_hub_descriptor
                0x00000000fe022d44       0x64 common/libcommon.o
 .text.usb_get_port_status
                0x00000000fe022da8       0x64 common/libcommon.o
 .text.usb_set_port_feature
                0x00000000fe022e0c       0x60 common/libcommon.o
 .text.usb_clear_port_feature
                0x00000000fe022e6c       0x60 common/libcommon.o
 .text.usb_hub_power_on
                0x00000000fe022ecc       0x8c common/libcommon.o
 .text.usb_hub_reset
                0x00000000fe022f58       0x30 common/libcommon.o
                0x00000000fe022f58                usb_hub_reset
 .text.hub_port_reset
                0x00000000fe022f88      0x134 common/libcommon.o
                0x00000000fe022f88                hub_port_reset
 .text.usb_hub_port_connect_change
                0x00000000fe0230bc      0x16c common/libcommon.o
                0x00000000fe0230bc                usb_hub_port_connect_change
 .text.usb_hub_configure
                0x00000000fe023228      0x350 common/libcommon.o
 .text.usb_hub_probe
                0x00000000fe023578       0x84 common/libcommon.o
                0x00000000fe023578                usb_hub_probe
 .text.usb_stor_irq
                0x00000000fe0235fc       0x20 common/libcommon.o
 .text.usb_request_sense
                0x00000000fe02361c       0xa4 common/libcommon.o
 .text.usb_stor_BBB_reset
                0x00000000fe0236c0      0x118 common/libcommon.o
 .text.usb_stor_CB_reset
                0x00000000fe0237d8      0x10c common/libcommon.o
 .text.usb_stor_get_dev
                0x00000000fe0238e4       0x48 common/libcommon.o
                0x00000000fe0238e4                usb_stor_get_dev
 .text.usb_show_progress
                0x00000000fe02392c        0x4 common/libcommon.o
                0x00000000fe02392c                usb_show_progress
 .text.usb_stor_write
                0x00000000fe023930      0x250 common/libcommon.o
                0x00000000fe023930                usb_stor_write
 .text.usb_stor_read
                0x00000000fe023b80      0x250 common/libcommon.o
                0x00000000fe023b80                usb_stor_read
 .text.usb_stor_info
                0x00000000fe023dd0       0xa8 common/libcommon.o
                0x00000000fe023dd0                usb_stor_info
 .text.usb_stor_BBB_comdat
                0x00000000fe023e78      0x148 common/libcommon.o
                0x00000000fe023e78                usb_stor_BBB_comdat
 .text.usb_stor_CB_comdat
                0x00000000fe023fc0      0x2e0 common/libcommon.o
                0x00000000fe023fc0                usb_stor_CB_comdat
 .text.usb_stor_CBI_get_status
                0x00000000fe0242a0      0x134 common/libcommon.o
                0x00000000fe0242a0                usb_stor_CBI_get_status
 .text.usb_stor_CB_transport
                0x00000000fe0243d4      0x2a0 common/libcommon.o
                0x00000000fe0243d4                usb_stor_CB_transport
 .text.usb_stor_BBB_clear_endpt_stall
                0x00000000fe024674       0x64 common/libcommon.o
                0x00000000fe024674                usb_stor_BBB_clear_endpt_stall
 .text.usb_stor_BBB_transport
                0x00000000fe0246d8      0x2c8 common/libcommon.o
                0x00000000fe0246d8                usb_stor_BBB_transport
 .text.usb_storage_probe
                0x00000000fe0249a0      0x2a0 common/libcommon.o
                0x00000000fe0249a0                usb_storage_probe
 .text.usb_stor_get_info
                0x00000000fe024c40      0x328 common/libcommon.o
                0x00000000fe024c40                usb_stor_get_info
 .text.usb_stor_scan
                0x00000000fe024f68      0x264 common/libcommon.o
                0x00000000fe024f68                usb_stor_scan
 .text.CYGACC_COMM_IF_GETC_TIMEOUT
                0x00000000fe0251cc       0x80 common/libcommon.o
                0x00000000fe0251cc                CYGACC_COMM_IF_GETC_TIMEOUT
 .text.xyzModem_flush
                0x00000000fe02524c       0x50 common/libcommon.o
 .text.CYGACC_COMM_IF_PUTC
                0x00000000fe02529c       0x24 common/libcommon.o
                0x00000000fe02529c                CYGACC_COMM_IF_PUTC
 .text.xyzModem_get_hdr
                0x00000000fe0252c0      0x344 common/libcommon.o
 .text.parse_num
                0x00000000fe025604      0x168 common/libcommon.o
                0x00000000fe025604                parse_num
 .text.xyzModem_stream_open
                0x00000000fe02576c      0x1d4 common/libcommon.o
                0x00000000fe02576c                xyzModem_stream_open
 .text.xyzModem_stream_read
                0x00000000fe025940      0x308 common/libcommon.o
                0x00000000fe025940                xyzModem_stream_read
 .text.xyzModem_stream_close
                0x00000000fe025c48       0x64 common/libcommon.o
                0x00000000fe025c48                xyzModem_stream_close
 .text.xyzModem_stream_terminate
                0x00000000fe025cac      0x104 common/libcommon.o
                0x00000000fe025cac                xyzModem_stream_terminate
 .text.xyzModem_error
                0x00000000fe025db0       0x8c common/libcommon.o
                0x00000000fe025db0                xyzModem_error
 .text.get_dev  0x00000000fe025e3c       0xb4 disk/libdisk.o
                0x00000000fe025e3c                get_dev
 .text.dev_print
                0x00000000fe025ef0      0x25c disk/libdisk.o
                0x00000000fe025ef0                dev_print
 .text.init_part
                0x00000000fe02614c       0x48 disk/libdisk.o
                0x00000000fe02614c                init_part
 .text.print_part
                0x00000000fe026194       0xf4 disk/libdisk.o
                0x00000000fe026194                print_part
 .text.get_partition_info
                0x00000000fe026288       0x44 disk/libdisk.o
                0x00000000fe026288                get_partition_info
 .text.get_device
                0x00000000fe0262cc       0xd0 disk/libdisk.o
                0x00000000fe0262cc                get_device
 .text.get_device_and_partition
                0x00000000fe02639c      0x40c disk/libdisk.o
                0x00000000fe02639c                get_device_and_partition
 .text.get_partition_info_extended
                0x00000000fe0267a8      0x368 disk/libdisk.o
 .text.test_block_type
                0x00000000fe026b10       0x98 disk/libdisk.o
 .text.print_partition_extended
                0x00000000fe026ba8      0x2b4 disk/libdisk.o
 .text.test_part_dos
                0x00000000fe026e5c       0x9c disk/libdisk.o
                0x00000000fe026e5c                test_part_dos
 .text.print_part_dos
                0x00000000fe026ef8       0x54 disk/libdisk.o
                0x00000000fe026ef8                print_part_dos
 .text.get_partition_info_dos
                0x00000000fe026f4c       0x38 disk/libdisk.o
                0x00000000fe026f4c                get_partition_info_dos
 .text.fsl_sata_get_wcache
                0x00000000fe026f84       0x38 drivers/block/libblock.o
 .text.ata_wait_register
                0x00000000fe026fbc       0xd8 drivers/block/libblock.o
 .text.fsl_ata_exec_ata_cmd
                0x00000000fe027094      0x700 drivers/block/libblock.o
 .text.fsl_sata_exec_cmd
                0x00000000fe027794       0xa4 drivers/block/libblock.o
 .text.fsl_sata_rw_cmd
                0x00000000fe027838       0xec drivers/block/libblock.o
 .text.fsl_sata_rw_cmd_ext
                0x00000000fe027924      0x104 drivers/block/libblock.o
 .text.init_sata
                0x00000000fe027a28      0x3d4 drivers/block/libblock.o
                0x00000000fe027a28                init_sata
 .text.fsl_sata_flush_cache
                0x00000000fe027dfc       0x88 drivers/block/libblock.o
                0x00000000fe027dfc                fsl_sata_flush_cache
 .text.fsl_sata_rw_ncq_cmd
                0x00000000fe027e84      0x12c drivers/block/libblock.o
                0x00000000fe027e84                fsl_sata_rw_ncq_cmd
 .text.fsl_sata_flush_cache_ext
                0x00000000fe027fb0       0x88 drivers/block/libblock.o
                0x00000000fe027fb0                fsl_sata_flush_cache_ext
 .text.ata_low_level_rw_lba48
                0x00000000fe028038      0x150 drivers/block/libblock.o
                0x00000000fe028038                ata_low_level_rw_lba48
 .text.ata_low_level_rw_lba28
                0x00000000fe028188       0xbc drivers/block/libblock.o
                0x00000000fe028188                ata_low_level_rw_lba28
 .text.sata_read
                0x00000000fe028244       0x5c drivers/block/libblock.o
                0x00000000fe028244                sata_read
 .text.sata_write
                0x00000000fe0282a0       0xe4 drivers/block/libblock.o
                0x00000000fe0282a0                sata_write
 .text.scan_sata
                0x00000000fe028384      0x368 drivers/block/libblock.o
                0x00000000fe028384                scan_sata
 .text.ata_id_n_sectors
                0x00000000fe0286ec       0xa4 drivers/block/libblock.o
                0x00000000fe0286ec                ata_id_n_sectors
 .text.ata_dev_classify
                0x00000000fe028790       0x78 drivers/block/libblock.o
                0x00000000fe028790                ata_dev_classify
 .text.ata_id_c_string
                0x00000000fe028808       0xa8 drivers/block/libblock.o
                0x00000000fe028808                ata_id_c_string
 .text.ata_swap_buf_le16
                0x00000000fe0288b0       0x38 drivers/block/libblock.o
                0x00000000fe0288b0                ata_swap_buf_le16
 .text.set_i2c_bus_speed
                0x00000000fe0288e8      0x180 drivers/i2c/libi2c.o
 .text.i2c_wait4bus
                0x00000000fe028a68       0xe0 drivers/i2c/libi2c.o
 .text.get_i2c_clock
                0x00000000fe028b48       0x18 drivers/i2c/libi2c.o
                0x00000000fe028b48                get_i2c_clock
 .text.i2c_init
                0x00000000fe028b60       0xf0 drivers/i2c/libi2c.o
                0x00000000fe028b60                i2c_init
 .text.i2c_read
                0x00000000fe028c50      0x570 drivers/i2c/libi2c.o
                0x00000000fe028c50                i2c_read
 .text.i2c_write
                0x00000000fe0291c0      0x3c8 drivers/i2c/libi2c.o
                0x00000000fe0291c0                i2c_write
 .text.i2c_probe
                0x00000000fe029588       0x78 drivers/i2c/libi2c.o
                0x00000000fe029588                i2c_probe
 .text.i2c_set_bus_num
                0x00000000fe029600       0x40 drivers/i2c/libi2c.o
                0x00000000fe029600                i2c_set_bus_num
 .text.i2c_set_bus_speed
                0x00000000fe029640       0xa4 drivers/i2c/libi2c.o
                0x00000000fe029640                i2c_set_bus_speed
 .text.i2c_get_bus_speed
                0x00000000fe0296e4       0x38 drivers/i2c/libi2c.o
                0x00000000fe0296e4                i2c_get_bus_speed
 .text.add_mtd_device
                0x00000000fe02971c       0xb4 drivers/mtd/libmtd.o
                0x00000000fe02971c                add_mtd_device
 .text.get_mtd_device_nm
                0x00000000fe0297d0       0xb4 drivers/mtd/libmtd.o
                0x00000000fe0297d0                get_mtd_device_nm
 .text.__flash_write8
                0x00000000fe029884        0x8 drivers/mtd/libmtd.o
 .text.__flash_write16
                0x00000000fe02988c        0x8 drivers/mtd/libmtd.o
 .text.__flash_write32
                0x00000000fe029894        0x8 drivers/mtd/libmtd.o
 .text.__flash_write64
                0x00000000fe02989c        0xc drivers/mtd/libmtd.o
 .text.__flash_read8
                0x00000000fe0298a8        0x8 drivers/mtd/libmtd.o
 .text.__flash_read16
                0x00000000fe0298b0        0x8 drivers/mtd/libmtd.o
 .text.__flash_read32
                0x00000000fe0298b8        0x8 drivers/mtd/libmtd.o
 .text.__flash_read64
                0x00000000fe0298c0       0x14 drivers/mtd/libmtd.o
 .text.flash_make_cmd
                0x00000000fe0298d4       0x64 drivers/mtd/libmtd.o
 .text.flash_isequal
                0x00000000fe029938      0x110 drivers/mtd/libmtd.o
 .text.flash_isset
                0x00000000fe029a48      0x11c drivers/mtd/libmtd.o
 .text.use_flash_status_poll
                0x00000000fe029b64        0x8 drivers/mtd/libmtd.o
 .text.flash_status_poll
                0x00000000fe029b6c        0x8 drivers/mtd/libmtd.o
 .text.flash_add_byte
                0x00000000fe029b74       0x8c drivers/mtd/libmtd.o
 .text.find_sector
                0x00000000fe029c00      0x114 drivers/mtd/libmtd.o
 .text.cfi_reverse_geometry
                0x00000000fe029d14       0x4c drivers/mtd/libmtd.o
 .text.__cfi_flash_bank_addr
                0x00000000fe029d60        0x8 drivers/mtd/libmtd.o
                0x00000000fe029d60                cfi_flash_bank_addr
 .text.__cfi_flash_bank_size
                0x00000000fe029d68        0x8 drivers/mtd/libmtd.o
                0x00000000fe029d68                cfi_flash_bank_size
 .text.flash_get_info
                0x00000000fe029d70       0x28 drivers/mtd/libmtd.o
                0x00000000fe029d70                flash_get_info
 .text.flash_write_cmd
                0x00000000fe029d98       0xd4 drivers/mtd/libmtd.o
                0x00000000fe029d98                flash_write_cmd
 .text.flash_unlock_seq
                0x00000000fe029e6c       0x5c drivers/mtd/libmtd.o
 .text.flash_status_check
                0x00000000fe029ec8      0x2e4 drivers/mtd/libmtd.o
 .text.flash_full_status_check
                0x00000000fe02a1ac      0x1a4 drivers/mtd/libmtd.o
 .text.flash_write_cfiword
                0x00000000fe02a350      0x2c0 drivers/mtd/libmtd.o
 .text.flash_erase
                0x00000000fe02a610      0x284 drivers/mtd/libmtd.o
                0x00000000fe02a610                flash_erase
 .text.flash_print_info
                0x00000000fe02a894      0x280 drivers/mtd/libmtd.o
                0x00000000fe02a894                flash_print_info
 .text.write_buff
                0x00000000fe02ab14      0x30c drivers/mtd/libmtd.o
                0x00000000fe02ab14                write_buff
 .text.flash_real_protect
                0x00000000fe02ae20      0x418 drivers/mtd/libmtd.o
                0x00000000fe02ae20                flash_real_protect
 .text.__flash_cmd_reset
                0x00000000fe02b238       0x54 drivers/mtd/libmtd.o
                0x00000000fe02b238                flash_cmd_reset
                0x00000000fe02b238                __flash_cmd_reset
 .text.flash_get_size
                0x00000000fe02b28c      0xa28 drivers/mtd/libmtd.o
                0x00000000fe02b28c                flash_get_size
 .text.flash_protect_default
                0x00000000fe02bcb4       0x80 drivers/mtd/libmtd.o
                0x00000000fe02bcb4                flash_protect_default
 .text.flash_init
                0x00000000fe02bd34      0x14c drivers/mtd/libmtd.o
                0x00000000fe02bd34                flash_init
 .text.nand_register
                0x00000000fe02be80       0xc8 drivers/mtd/nand/libnand.o
                0x00000000fe02be80                nand_register
 .text.nand_init
                0x00000000fe02bf48       0x44 drivers/mtd/nand/libnand.o
                0x00000000fe02bf48                nand_init
 .text.scan_read_raw_oob
                0x00000000fe02bf8c      0x11c drivers/mtd/nand/libnand.o
 .text.scan_read_raw
                0x00000000fe02c0a8       0x54 drivers/mtd/nand/libnand.o
 .text.bbt_get_ver_offs
                0x00000000fe02c0fc       0x20 drivers/mtd/nand/libnand.o
 .text.read_bbt
                0x00000000fe02c11c      0x3c4 drivers/mtd/nand/libnand.o
 .text.read_abs_bbt
                0x00000000fe02c4e0      0x1bc drivers/mtd/nand/libnand.o
 .text.write_bbt
                0x00000000fe02c69c      0x784 drivers/mtd/nand/libnand.o
 .text.verify_bbt_descr
                0x00000000fe02ce20      0x240 drivers/mtd/nand/libnand.o
 .text.check_pattern
                0x00000000fe02d060      0x260 drivers/mtd/nand/libnand.o
 .text.create_bbt
                0x00000000fe02d2c0      0x4a8 drivers/mtd/nand/libnand.o
 .text.search_bbt
                0x00000000fe02d768      0x2f4 drivers/mtd/nand/libnand.o
 .text.nand_update_bbt
                0x00000000fe02da5c      0x1d8 drivers/mtd/nand/libnand.o
                0x00000000fe02da5c                nand_update_bbt
 .text.mark_bbt_region
                0x00000000fe02dc34      0x298 drivers/mtd/nand/libnand.o
 .text.nand_scan_bbt
                0x00000000fe02decc      0x590 drivers/mtd/nand/libnand.o
                0x00000000fe02decc                nand_scan_bbt
 .text.nand_default_bbt
                0x00000000fe02e45c      0x154 drivers/mtd/nand/libnand.o
                0x00000000fe02e45c                nand_default_bbt
 .text.nand_isbad_bbt
                0x00000000fe02e5b0       0x6c drivers/mtd/nand/libnand.o
                0x00000000fe02e5b0                nand_isbad_bbt
 .text.check_skip_len
                0x00000000fe02e61c      0x148 drivers/mtd/nand/libnand.o
 .text.nand_erase_opts
                0x00000000fe02e764      0x400 drivers/mtd/nand/libnand.o
                0x00000000fe02e764                nand_erase_opts
 .text.nand_write_skip_bad
                0x00000000fe02eb64      0x268 drivers/mtd/nand/libnand.o
                0x00000000fe02eb64                nand_write_skip_bad
 .text.nand_read_skip_bad
                0x00000000fe02edcc      0x26c drivers/mtd/nand/libnand.o
                0x00000000fe02edcc                nand_read_skip_bad
 .text.nand_calculate_ecc
                0x00000000fe02f038      0x15c drivers/mtd/nand/libnand.o
                0x00000000fe02f038                nand_calculate_ecc
 .text.nand_correct_data
                0x00000000fe02f194      0x130 drivers/mtd/nand/libnand.o
                0x00000000fe02f194                nand_correct_data
 .text.nand_release_device
                0x00000000fe02f2c4       0x30 drivers/mtd/nand/libnand.o
 .text.nand_read_byte
                0x00000000fe02f2f4       0x20 drivers/mtd/nand/libnand.o
                0x00000000fe02f2f4                nand_read_byte
 .text.nand_read_byte16
                0x00000000fe02f314       0x28 drivers/mtd/nand/libnand.o
 .text.nand_read_word
                0x00000000fe02f33c       0x20 drivers/mtd/nand/libnand.o
 .text.nand_write_buf
                0x00000000fe02f35c       0x2c drivers/mtd/nand/libnand.o
                0x00000000fe02f35c                nand_write_buf
 .text.nand_read_buf
                0x00000000fe02f388       0x34 drivers/mtd/nand/libnand.o
                0x00000000fe02f388                nand_read_buf
 .text.nand_verify_buf
                0x00000000fe02f3bc       0x90 drivers/mtd/nand/libnand.o
 .text.nand_write_buf16
                0x00000000fe02f44c       0x3c drivers/mtd/nand/libnand.o
                0x00000000fe02f44c                nand_write_buf16
 .text.nand_read_buf16
                0x00000000fe02f488       0x44 drivers/mtd/nand/libnand.o
                0x00000000fe02f488                nand_read_buf16
 .text.nand_verify_buf16
                0x00000000fe02f4cc       0x98 drivers/mtd/nand/libnand.o
 .text.nand_check_wp
                0x00000000fe02f564       0x84 drivers/mtd/nand/libnand.o
 .text.nand_get_device
                0x00000000fe02f5e8        0xc drivers/mtd/nand/libnand.o
 .text.nand_read_page_raw
                0x00000000fe02f5f4       0x6c drivers/mtd/nand/libnand.o
 .text.nand_read_page_raw_syndrome
                0x00000000fe02f660      0x13c drivers/mtd/nand/libnand.o
 .text.nand_read_page_swecc
                0x00000000fe02f79c      0x178 drivers/mtd/nand/libnand.o
 .text.nand_read_subpage
                0x00000000fe02f914      0x330 drivers/mtd/nand/libnand.o
 .text.nand_read_page_hwecc
                0x00000000fe02fc44      0x1b0 drivers/mtd/nand/libnand.o
 .text.nand_read_page_hwecc_oob_first
                0x00000000fe02fdf4      0x1b8 drivers/mtd/nand/libnand.o
 .text.nand_read_page_syndrome
                0x00000000fe02ffac      0x1a4 drivers/mtd/nand/libnand.o
 .text.nand_read_oob_std
                0x00000000fe030150       0x88 drivers/mtd/nand/libnand.o
 .text.nand_read_oob_syndrome
                0x00000000fe0301d8      0x184 drivers/mtd/nand/libnand.o
 .text.nand_write_oob_std
                0x00000000fe03035c       0xc8 drivers/mtd/nand/libnand.o
 .text.nand_write_oob_syndrome
                0x00000000fe030424      0x240 drivers/mtd/nand/libnand.o
 .text.nand_write_page_raw
                0x00000000fe030664       0x68 drivers/mtd/nand/libnand.o
 .text.nand_write_page_raw_syndrome
                0x00000000fe0306cc      0x138 drivers/mtd/nand/libnand.o
 .text.nand_write_page_swecc
                0x00000000fe030804      0x118 drivers/mtd/nand/libnand.o
 .text.nand_write_page_hwecc
                0x00000000fe03091c      0x138 drivers/mtd/nand/libnand.o
 .text.nand_write_page_syndrome
                0x00000000fe030a54      0x164 drivers/mtd/nand/libnand.o
 .text.single_erase_cmd
                0x00000000fe030bb8       0x70 drivers/mtd/nand/libnand.o
 .text.multi_erase_cmd
                0x00000000fe030c28       0xd0 drivers/mtd/nand/libnand.o
 .text.nand_sync
                0x00000000fe030cf8       0x40 drivers/mtd/nand/libnand.o
 .text.nand_select_chip
                0x00000000fe030d38       0x78 drivers/mtd/nand/libnand.o
 .text.nand_block_checkbad
                0x00000000fe030db0       0xcc drivers/mtd/nand/libnand.o
 .text.nand_block_isbad
                0x00000000fe030e7c       0x50 drivers/mtd/nand/libnand.o
 .text.nand_block_markbad
                0x00000000fe030ecc       0x88 drivers/mtd/nand/libnand.o
 .text.nand_write_page
                0x00000000fe030f54      0x168 drivers/mtd/nand/libnand.o
 .text.nand_block_bad
                0x00000000fe0310bc      0x200 drivers/mtd/nand/libnand.o
 .text.nand_fill_oob
                0x00000000fe0312bc      0x170 drivers/mtd/nand/libnand.o
 .text.nand_do_write_oob
                0x00000000fe03142c      0x29c drivers/mtd/nand/libnand.o
 .text.nand_do_write_ops
                0x00000000fe0316c8      0x3e8 drivers/mtd/nand/libnand.o
 .text.nand_write_oob
                0x00000000fe031ab0      0x114 drivers/mtd/nand/libnand.o
 .text.nand_write
                0x00000000fe031bc4      0x110 drivers/mtd/nand/libnand.o
 .text.nand_transfer_oob
                0x00000000fe031cd4      0x170 drivers/mtd/nand/libnand.o
 .text.nand_default_block_markbad
                0x00000000fe031e44      0x240 drivers/mtd/nand/libnand.o
 .text.nand_wait
                0x00000000fe032084      0x13c drivers/mtd/nand/libnand.o
 .text.nand_wait_ready
                0x00000000fe0321c0       0x84 drivers/mtd/nand/libnand.o
                0x00000000fe0321c0                nand_wait_ready
 .text.nand_do_read_ops
                0x00000000fe032244      0x48c drivers/mtd/nand/libnand.o
 .text.nand_read_oob
                0x00000000fe0326d0      0x3c0 drivers/mtd/nand/libnand.o
 .text.nand_read
                0x00000000fe032a90      0x110 drivers/mtd/nand/libnand.o
 .text.nand_command
                0x00000000fe032ba0      0x25c drivers/mtd/nand/libnand.o
 .text.nand_command_lp
                0x00000000fe032dfc      0x300 drivers/mtd/nand/libnand.o
 .text.nand_erase_nand
                0x00000000fe0330fc      0x54c drivers/mtd/nand/libnand.o
                0x00000000fe0330fc                nand_erase_nand
 .text.nand_erase
                0x00000000fe033648       0x24 drivers/mtd/nand/libnand.o
 .text.nand_scan_ident
                0x00000000fe03366c      0x8fc drivers/mtd/nand/libnand.o
                0x00000000fe03366c                nand_scan_ident
 .text.nand_scan_tail
                0x00000000fe033f68      0x5dc drivers/mtd/nand/libnand.o
                0x00000000fe033f68                nand_scan_tail
 .text.set_addr
                0x00000000fe034544       0xcc drivers/mtd/nand/libnand.o
 .text.fsl_elbc_do_read
                0x00000000fe034610       0x6c drivers/mtd/nand/libnand.o
 .text.fsl_elbc_select_chip
                0x00000000fe03467c        0x4 drivers/mtd/nand/libnand.o
 .text.fsl_elbc_verify_buf
                0x00000000fe034680      0x14c drivers/mtd/nand/libnand.o
 .text.fsl_elbc_read_byte
                0x00000000fe0347cc       0x7c drivers/mtd/nand/libnand.o
 .text.fsl_elbc_run_command
                0x00000000fe034848      0x150 drivers/mtd/nand/libnand.o
 .text.fsl_elbc_wait
                0x00000000fe034998       0xe4 drivers/mtd/nand/libnand.o
 .text.fsl_elbc_cmdfunc
                0x00000000fe034a7c      0x3bc drivers/mtd/nand/libnand.o
 .text.fsl_elbc_read_buf
                0x00000000fe034e38       0xac drivers/mtd/nand/libnand.o
 .text.fsl_elbc_read_page
                0x00000000fe034ee4       0x7c drivers/mtd/nand/libnand.o
 .text.fsl_elbc_write_buf
                0x00000000fe034f60       0xec drivers/mtd/nand/libnand.o
 .text.fsl_elbc_write_page
                0x00000000fe03504c       0x58 drivers/mtd/nand/libnand.o
 .text.board_nand_init
                0x00000000fe0350a4      0x2bc drivers/mtd/nand/libnand.o
                0x00000000fe0350a4                board_nand_init
 .text.wait_for_eepro100
                0x00000000fe035360       0x60 drivers/net/libnet.o
 .text.read_eeprom
                0x00000000fe0353c0      0x188 drivers/net/libnet.o
 .text.init_rx_ring
                0x00000000fe035548       0xfc drivers/net/libnet.o
 .text.eepro100_recv
                0x00000000fe035644      0x22c drivers/net/libnet.o
 .text.eepro100_halt
                0x00000000fe035870       0xc8 drivers/net/libnet.o
 .text.get_phyreg
                0x00000000fe035938       0xbc drivers/net/libnet.o
 .text.verify_phyaddr
                0x00000000fe0359f4       0xbc drivers/net/libnet.o
 .text.eepro100_miiphy_write
                0x00000000fe035ab0      0x120 drivers/net/libnet.o
 .text.eepro100_miiphy_read
                0x00000000fe035bd0       0xa0 drivers/net/libnet.o
 .text.eepro100_send
                0x00000000fe035c70      0x280 drivers/net/libnet.o
 .text.eepro100_init
                0x00000000fe035ef0      0x488 drivers/net/libnet.o
 .text.eepro100_initialize
                0x00000000fe036378      0x2a4 drivers/net/libnet.o
                0x00000000fe036378                eepro100_initialize
 .text.fsl_pq_mdio_reset
                0x00000000fe03661c       0x3c drivers/net/libnet.o
 .text.tsec_local_mdio_write
                0x00000000fe036658       0x4c drivers/net/libnet.o
                0x00000000fe036658                tsec_local_mdio_write
 .text.tsec_phy_write
                0x00000000fe0366a4       0x28 drivers/net/libnet.o
                0x00000000fe0366a4                tsec_phy_write
 .text.tsec_local_mdio_read
                0x00000000fe0366cc       0x70 drivers/net/libnet.o
                0x00000000fe0366cc                tsec_local_mdio_read
 .text.tsec_phy_read
                0x00000000fe03673c       0x24 drivers/net/libnet.o
                0x00000000fe03673c                tsec_phy_read
 .text.fsl_pq_mdio_init
                0x00000000fe036760       0x90 drivers/net/libnet.o
                0x00000000fe036760                fsl_pq_mdio_init
 .text.tsec_send
                0x00000000fe0367f0      0x120 drivers/net/libnet.o
 .text.tsec_recv
                0x00000000fe036910      0x184 drivers/net/libnet.o
 .text.tsec_halt
                0x00000000fe036a94       0xa8 drivers/net/libnet.o
 .text.tsec_init
                0x00000000fe036b3c      0x414 drivers/net/libnet.o
 .text.tsec_eth_init
                0x00000000fe036f50      0x37c drivers/net/libnet.o
                0x00000000fe036f50                tsec_eth_init
 .text.tsec_standard_init
                0x00000000fe0372cc       0x64 drivers/net/libnet.o
                0x00000000fe0372cc                tsec_standard_init
 .text.genphy_shutdown
                0x00000000fe037330        0x8 drivers/net/phy/libphy.o
                0x00000000fe037330                genphy_shutdown
 .text.genphy_config_advert
                0x00000000fe037338      0x198 drivers/net/phy/libphy.o
                0x00000000fe037338                genphy_config_advert
 .text.genphy_setup_forced
                0x00000000fe0374d0       0x7c drivers/net/phy/libphy.o
                0x00000000fe0374d0                genphy_setup_forced
 .text.genphy_restart_aneg
                0x00000000fe03754c       0x70 drivers/net/phy/libphy.o
                0x00000000fe03754c                genphy_restart_aneg
 .text.genphy_config_aneg
                0x00000000fe0375bc       0xb4 drivers/net/phy/libphy.o
                0x00000000fe0375bc                genphy_config_aneg
 .text.genphy_config
                0x00000000fe037670       0xf4 drivers/net/phy/libphy.o
                0x00000000fe037670                genphy_config
 .text.genphy_update_link
                0x00000000fe037764      0x1b0 drivers/net/phy/libphy.o
                0x00000000fe037764                genphy_update_link
 .text.genphy_startup
                0x00000000fe037914      0x1d8 drivers/net/phy/libphy.o
                0x00000000fe037914                genphy_startup
 .text.phy_init
                0x00000000fe037aec       0x44 drivers/net/phy/libphy.o
                0x00000000fe037aec                phy_init
 .text.phy_register
                0x00000000fe037b30       0x44 drivers/net/phy/libphy.o
                0x00000000fe037b30                phy_register
 .text.phy_probe
                0x00000000fe037b74       0x54 drivers/net/phy/libphy.o
                0x00000000fe037b74                phy_probe
 .text.get_phy_driver
                0x00000000fe037bc8       0x8c drivers/net/phy/libphy.o
                0x00000000fe037bc8                get_phy_driver
 .text.phy_device_create
                0x00000000fe037c54       0xe8 drivers/net/phy/libphy.o
                0x00000000fe037c54                phy_device_create
 .text.get_phy_id
                0x00000000fe037d3c       0xbc drivers/net/phy/libphy.o
                0x00000000fe037d3c                get_phy_id
 .text.get_phy_device
                0x00000000fe037df8      0x130 drivers/net/phy/libphy.o
                0x00000000fe037df8                get_phy_device
 .text.phy_reset
                0x00000000fe037f28      0x108 drivers/net/phy/libphy.o
                0x00000000fe037f28                phy_reset
 .text.phy_connect
                0x00000000fe038030       0xd4 drivers/net/phy/libphy.o
                0x00000000fe038030                phy_connect
 .text.phy_startup
                0x00000000fe038104       0x40 drivers/net/phy/libphy.o
                0x00000000fe038104                phy_startup
 .text.__board_phy_config
                0x00000000fe038144       0x40 drivers/net/phy/libphy.o
                0x00000000fe038144                board_phy_config
 .text.phy_config
                0x00000000fe038184       0x24 drivers/net/phy/libphy.o
                0x00000000fe038184                phy_config
 .text.phy_shutdown
                0x00000000fe0381a8       0x40 drivers/net/phy/libphy.o
                0x00000000fe0381a8                phy_shutdown
 .text.ar8021_config
                0x00000000fe0381e8       0x6c drivers/net/phy/libphy.o
 .text.phy_atheros_init
                0x00000000fe038254       0x38 drivers/net/phy/libphy.o
                0x00000000fe038254                phy_atheros_init
 .text.bcm54xx_parse_status
                0x00000000fe03828c      0x104 drivers/net/phy/libphy.o
 .text.bcm54xx_startup
                0x00000000fe038390       0x38 drivers/net/phy/libphy.o
 .text.bcm5482_config
                0x00000000fe0383c8      0x164 drivers/net/phy/libphy.o
 .text.bcm5461_config
                0x00000000fe03852c       0x38 drivers/net/phy/libphy.o
 .text.bcm5482_startup
                0x00000000fe038564      0x19c drivers/net/phy/libphy.o
 .text.phy_broadcom_init
                0x00000000fe038700       0x48 drivers/net/phy/libphy.o
                0x00000000fe038700                phy_broadcom_init
 .text.dm9161_startup
                0x00000000fe038748       0x84 drivers/net/phy/libphy.o
 .text.dm9161_config
                0x00000000fe0387cc       0x94 drivers/net/phy/libphy.o
 .text.phy_davicom_init
                0x00000000fe038860       0x38 drivers/net/phy/libphy.o
                0x00000000fe038860                phy_davicom_init
 .text.lxt971_startup
                0x00000000fe038898       0xb4 drivers/net/phy/libphy.o
 .text.phy_lxt_init
                0x00000000fe03894c       0x38 drivers/net/phy/libphy.o
                0x00000000fe03894c                phy_lxt_init
 .text.m88e1011s_config
                0x00000000fe038984      0x11c drivers/net/phy/libphy.o
 .text.m88e1121_config
                0x00000000fe038aa0       0xfc drivers/net/phy/libphy.o
 .text.m88e1111s_config
                0x00000000fe038b9c      0x3a0 drivers/net/phy/libphy.o
 .text.m88e1118_config
                0x00000000fe038f3c       0xdc drivers/net/phy/libphy.o
 .text.m88e1145_config
                0x00000000fe039018      0x130 drivers/net/phy/libphy.o
 .text.m88e1149_config
                0x00000000fe039148       0xdc drivers/net/phy/libphy.o
 .text.m88e1xxx_parse_status
                0x00000000fe039224      0x1b0 drivers/net/phy/libphy.o
 .text.m88e1118_startup
                0x00000000fe0393d4       0x5c drivers/net/phy/libphy.o
 .text.m88e1145_startup
                0x00000000fe039430       0x58 drivers/net/phy/libphy.o
 .text.m88e1011s_startup
                0x00000000fe039488       0x38 drivers/net/phy/libphy.o
 .text.phy_marvell_init
                0x00000000fe0394c0       0x60 drivers/net/phy/libphy.o
                0x00000000fe0394c0                phy_marvell_init
 .text.phy_micrel_init
                0x00000000fe039520       0x40 drivers/net/phy/libphy.o
                0x00000000fe039520                phy_micrel_init
 .text.dp83865_startup
                0x00000000fe039560       0x9c drivers/net/phy/libphy.o
 .text.dp83865_config
                0x00000000fe0395fc       0x58 drivers/net/phy/libphy.o
 .text.phy_natsemi_init
                0x00000000fe039654       0x38 drivers/net/phy/libphy.o
                0x00000000fe039654                phy_natsemi_init
 .text.rtl8211b_startup
                0x00000000fe03968c      0x1a4 drivers/net/phy/libphy.o
 .text.rtl8211b_config
                0x00000000fe039830       0x58 drivers/net/phy/libphy.o
 .text.phy_realtek_init
                0x00000000fe039888       0x38 drivers/net/phy/libphy.o
                0x00000000fe039888                phy_realtek_init
 .text.cis8204_config
                0x00000000fe0398c0       0xb4 drivers/net/phy/libphy.o
 .text.vitesse_config
                0x00000000fe039974       0x74 drivers/net/phy/libphy.o
 .text.vsc8601_config
                0x00000000fe0399e8       0x24 drivers/net/phy/libphy.o
                0x00000000fe0399e8                vsc8601_config
 .text.vitesse_startup
                0x00000000fe039a0c       0x9c drivers/net/phy/libphy.o
 .text.phy_vitesse_init
                0x00000000fe039aa8       0x78 drivers/net/phy/libphy.o
                0x00000000fe039aa8                phy_vitesse_init
 .text.pci_hose_read_config_byte
                0x00000000fe039b20       0x28 drivers/pci/libpci.o
                0x00000000fe039b20                pci_hose_read_config_byte
 .text.pci_hose_read_config_word
                0x00000000fe039b48       0x28 drivers/pci/libpci.o
                0x00000000fe039b48                pci_hose_read_config_word
 .text.pci_hose_read_config_dword
                0x00000000fe039b70       0x28 drivers/pci/libpci.o
                0x00000000fe039b70                pci_hose_read_config_dword
 .text.pci_hose_write_config_byte
                0x00000000fe039b98       0x28 drivers/pci/libpci.o
                0x00000000fe039b98                pci_hose_write_config_byte
 .text.pci_hose_write_config_word
                0x00000000fe039bc0       0x28 drivers/pci/libpci.o
                0x00000000fe039bc0                pci_hose_write_config_word
 .text.pci_hose_write_config_dword
                0x00000000fe039be8       0x28 drivers/pci/libpci.o
                0x00000000fe039be8                pci_hose_write_config_dword
 .text.pci_register_hose
                0x00000000fe039c10       0x5c drivers/pci/libpci.o
                0x00000000fe039c10                pci_register_hose
 .text.pci_bus_to_hose
                0x00000000fe039c6c       0x70 drivers/pci/libpci.o
                0x00000000fe039c6c                pci_bus_to_hose
 .text.pci_write_config_dword
                0x00000000fe039cdc       0x70 drivers/pci/libpci.o
                0x00000000fe039cdc                pci_write_config_dword
 .text.pci_write_config_word
                0x00000000fe039d4c       0x70 drivers/pci/libpci.o
                0x00000000fe039d4c                pci_write_config_word
 .text.pci_write_config_byte
                0x00000000fe039dbc       0x70 drivers/pci/libpci.o
                0x00000000fe039dbc                pci_write_config_byte
 .text.pci_read_config_dword
                0x00000000fe039e2c       0x78 drivers/pci/libpci.o
                0x00000000fe039e2c                pci_read_config_dword
 .text.pci_read_config_word
                0x00000000fe039ea4       0x78 drivers/pci/libpci.o
                0x00000000fe039ea4                pci_read_config_word
 .text.pci_read_config_byte
                0x00000000fe039f1c       0x78 drivers/pci/libpci.o
                0x00000000fe039f1c                pci_read_config_byte
 .text.pci_last_busno
                0x00000000fe039f94       0x54 drivers/pci/libpci.o
                0x00000000fe039f94                pci_last_busno
 .text.pci_find_devices
                0x00000000fe039fe8      0x170 drivers/pci/libpci.o
                0x00000000fe039fe8                pci_find_devices
 .text.__pci_hose_phys_to_bus
                0x00000000fe03a158       0xa0 drivers/pci/libpci.o
                0x00000000fe03a158                __pci_hose_phys_to_bus
 .text.pci_hose_phys_to_bus
                0x00000000fe03a1f8       0xb8 drivers/pci/libpci.o
                0x00000000fe03a1f8                pci_hose_phys_to_bus
 .text.__pci_hose_bus_to_phys
                0x00000000fe03a2b0       0xa0 drivers/pci/libpci.o
                0x00000000fe03a2b0                __pci_hose_bus_to_phys
 .text.pci_hose_bus_to_phys
                0x00000000fe03a350       0xb8 drivers/pci/libpci.o
                0x00000000fe03a350                pci_hose_bus_to_phys
 .text.pci_class_str
                0x00000000fe03a408      0x168 drivers/pci/libpci.o
                0x00000000fe03a408                pci_class_str
 .text.__pci_skip_dev
                0x00000000fe03a570       0x18 drivers/pci/libpci.o
                0x00000000fe03a570                __pci_skip_dev
                0x00000000fe03a570                pci_skip_dev
 .text.pci_hose_scan_bus
                0x00000000fe03a588      0x18c drivers/pci/libpci.o
                0x00000000fe03a588                pci_hose_scan_bus
 .text.pci_hose_scan
                0x00000000fe03a714       0x50 drivers/pci/libpci.o
                0x00000000fe03a714                pci_hose_scan
 .text.pci_init
                0x00000000fe03a764       0x3c drivers/pci/libpci.o
                0x00000000fe03a764                pci_init
 .text.pciauto_region_init
                0x00000000fe03a7a0       0x18 drivers/pci/libpci.o
                0x00000000fe03a7a0                pciauto_region_init
 .text.pciauto_region_align
                0x00000000fe03a7b8       0x1c drivers/pci/libpci.o
                0x00000000fe03a7b8                pciauto_region_align
 .text.pciauto_region_allocate
                0x00000000fe03a7d4       0x58 drivers/pci/libpci.o
                0x00000000fe03a7d4                pciauto_region_allocate
 .text.pciauto_setup_device
                0x00000000fe03a82c      0x250 drivers/pci/libpci.o
                0x00000000fe03a82c                pciauto_setup_device
 .text.pciauto_prescan_setup_bridge
                0x00000000fe03aa7c      0x1cc drivers/pci/libpci.o
                0x00000000fe03aa7c                pciauto_prescan_setup_bridge
 .text.pciauto_postscan_setup_bridge
                0x00000000fe03ac48      0x120 drivers/pci/libpci.o
                0x00000000fe03ac48                pciauto_postscan_setup_bridge
 .text.pciauto_config_init
                0x00000000fe03ad68      0x138 drivers/pci/libpci.o
                0x00000000fe03ad68                pciauto_config_init
 .text.pciauto_config_device
                0x00000000fe03aea0      0x17c drivers/pci/libpci.o
                0x00000000fe03aea0                pciauto_config_device
 .text.indirect_read_config_byte
                0x00000000fe03b01c       0x58 drivers/pci/libpci.o
 .text.indirect_read_config_word
                0x00000000fe03b074       0x58 drivers/pci/libpci.o
 .text.indirect_read_config_dword
                0x00000000fe03b0cc       0x50 drivers/pci/libpci.o
 .text.indirect_write_config_byte
                0x00000000fe03b11c       0x4c drivers/pci/libpci.o
 .text.indirect_write_config_word
                0x00000000fe03b168       0x4c drivers/pci/libpci.o
 .text.indirect_write_config_dword
                0x00000000fe03b1b4       0x44 drivers/pci/libpci.o
 .text.pci_setup_indirect
                0x00000000fe03b1f8       0x5c drivers/pci/libpci.o
                0x00000000fe03b1f8                pci_setup_indirect
 .text.GregorianDay
                0x00000000fe03b254      0x138 drivers/rtc/librtc.o
                0x00000000fe03b254                GregorianDay
 .text.to_tm    0x00000000fe03b38c      0x178 drivers/rtc/librtc.o
                0x00000000fe03b38c                to_tm
 .text.rtc_write
                0x00000000fe03b504       0x3c drivers/rtc/librtc.o
 .text.rtc_read
                0x00000000fe03b540       0x38 drivers/rtc/librtc.o
 .text.rtc_get  0x00000000fe03b578      0x1b8 drivers/rtc/librtc.o
                0x00000000fe03b578                rtc_get
 .text.rtc_set  0x00000000fe03b730      0x1a0 drivers/rtc/librtc.o
                0x00000000fe03b730                rtc_set
 .text.rtc_reset
                0x00000000fe03b8d0        0x4 drivers/rtc/librtc.o
                0x00000000fe03b8d0                rtc_reset
 .text.NS16550_init
                0x00000000fe03b8d4       0x74 drivers/serial/libserial.o
                0x00000000fe03b8d4                NS16550_init
 .text.NS16550_reinit
                0x00000000fe03b948       0x78 drivers/serial/libserial.o
                0x00000000fe03b948                NS16550_reinit
 .text.NS16550_putc
                0x00000000fe03b9c0       0x28 drivers/serial/libserial.o
                0x00000000fe03b9c0                NS16550_putc
 .text.NS16550_getc
                0x00000000fe03b9e8       0x30 drivers/serial/libserial.o
                0x00000000fe03b9e8                NS16550_getc
 .text.NS16550_tstc
                0x00000000fe03ba18       0x18 drivers/serial/libserial.o
                0x00000000fe03ba18                NS16550_tstc
 .text.calc_divisor
                0x00000000fe03ba30       0x20 drivers/serial/libserial.o
 .text.serial_init
                0x00000000fe03ba50       0x60 drivers/serial/libserial.o
                0x00000000fe03ba50                serial_init
 .text._serial_putc
                0x00000000fe03bab0       0x7c drivers/serial/libserial.o
                0x00000000fe03bab0                _serial_putc
 .text._serial_puts
                0x00000000fe03bb2c       0x5c drivers/serial/libserial.o
                0x00000000fe03bb2c                _serial_puts
 .text._serial_getc
                0x00000000fe03bb88       0x40 drivers/serial/libserial.o
                0x00000000fe03bb88                _serial_getc
 .text._serial_tstc
                0x00000000fe03bbc8       0x40 drivers/serial/libserial.o
                0x00000000fe03bbc8                _serial_tstc
 .text._serial_setbrg
                0x00000000fe03bc08       0x58 drivers/serial/libserial.o
                0x00000000fe03bc08                _serial_setbrg
 .text.serial_putc
                0x00000000fe03bc60       0x24 drivers/serial/libserial.o
                0x00000000fe03bc60                serial_putc
 .text.serial_puts
                0x00000000fe03bc84       0x24 drivers/serial/libserial.o
                0x00000000fe03bc84                serial_puts
 .text.serial_getc
                0x00000000fe03bca8       0x24 drivers/serial/libserial.o
                0x00000000fe03bca8                serial_getc
 .text.serial_tstc
                0x00000000fe03bccc       0x24 drivers/serial/libserial.o
                0x00000000fe03bccc                serial_tstc
 .text.serial_setbrg
                0x00000000fe03bcf0       0x24 drivers/serial/libserial.o
                0x00000000fe03bcf0                serial_setbrg
 .text.ehci_td_buffer
                0x00000000fe03bd14       0xd8 drivers/usb/host/libusb_host.o
 .text.handshake
                0x00000000fe03bdec       0xa8 drivers/usb/host/libusb_host.o
 .text.ehci_submit_async
                0x00000000fe03be94      0x7c4 drivers/usb/host/libusb_host.o
 .text.__ehci_powerup_fixup
                0x00000000fe03c658       0x24 drivers/usb/host/libusb_host.o
                0x00000000fe03c658                ehci_powerup_fixup
                0x00000000fe03c658                __ehci_powerup_fixup
 .text.ehci_submit_root
                0x00000000fe03c67c      0x784 drivers/usb/host/libusb_host.o
                0x00000000fe03c67c                ehci_submit_root
 .text.usb_lowlevel_stop
                0x00000000fe03ce00       0x20 drivers/usb/host/libusb_host.o
                0x00000000fe03ce00                usb_lowlevel_stop
 .text.usb_lowlevel_init
                0x00000000fe03ce20      0x268 drivers/usb/host/libusb_host.o
                0x00000000fe03ce20                usb_lowlevel_init
 .text.submit_bulk_msg
                0x00000000fe03d088       0x3c drivers/usb/host/libusb_host.o
                0x00000000fe03d088                submit_bulk_msg
 .text.submit_control_msg
                0x00000000fe03d0c4       0x70 drivers/usb/host/libusb_host.o
                0x00000000fe03d0c4                submit_control_msg
 .text.submit_int_msg
                0x00000000fe03d134       0x94 drivers/usb/host/libusb_host.o
                0x00000000fe03d134                submit_int_msg
 .text.ehci_hcd_init
                0x00000000fe03d1c8      0x1c8 drivers/usb/host/libusb_host.o
                0x00000000fe03d1c8                ehci_hcd_init
 .text.ehci_hcd_stop
                0x00000000fe03d390        0x8 drivers/usb/host/libusb_host.o
                0x00000000fe03d390                ehci_hcd_stop
 .text.get_fs   0x00000000fe03d398       0x28 fs/ext4/libext4fs.o
                0x00000000fe03d398                get_fs
 .text.ext4fs_free_node
                0x00000000fe03d3c0       0x4c fs/ext4/libext4fs.o
                0x00000000fe03d3c0                ext4fs_free_node
 .text.ext4fs_read_file
                0x00000000fe03d40c      0x2d0 fs/ext4/libext4fs.o
                0x00000000fe03d40c                ext4fs_read_file
 .text.ext4fs_ls
                0x00000000fe03d6dc       0x98 fs/ext4/libext4fs.o
                0x00000000fe03d6dc                ext4fs_ls
 .text.ext4fs_read
                0x00000000fe03d774       0x6c fs/ext4/libext4fs.o
                0x00000000fe03d774                ext4fs_read
 .text.ext4fs_read_inode
                0x00000000fe03d7e0      0x17c fs/ext4/libext4fs.o
                0x00000000fe03d7e0                ext4fs_read_inode
 .text.read_allocated_block
                0x00000000fe03d95c      0xd7c fs/ext4/libext4fs.o
                0x00000000fe03d95c                read_allocated_block
 .text.ext4fs_close
                0x00000000fe03e6d8      0x11c fs/ext4/libext4fs.o
                0x00000000fe03e6d8                ext4fs_close
 .text.ext4fs_iterate_dir
                0x00000000fe03e7f4      0x408 fs/ext4/libext4fs.o
                0x00000000fe03e7f4                ext4fs_iterate_dir
 .text.ext4fs_find_file1
                0x00000000fe03ebfc      0x394 fs/ext4/libext4fs.o
 .text.ext4fs_find_file
                0x00000000fe03ef90       0xac fs/ext4/libext4fs.o
                0x00000000fe03ef90                ext4fs_find_file
 .text.ext4fs_open
                0x00000000fe03f03c       0xe0 fs/ext4/libext4fs.o
                0x00000000fe03f03c                ext4fs_open
 .text.ext4fs_mount
                0x00000000fe03f11c      0x14c fs/ext4/libext4fs.o
                0x00000000fe03f11c                ext4fs_mount
 .text.ext4fs_set_blk_dev
                0x00000000fe03f268       0x74 fs/ext4/libext4fs.o
                0x00000000fe03f268                ext4fs_set_blk_dev
 .text.ext4fs_devread
                0x00000000fe03f2dc      0x278 fs/ext4/libext4fs.o
                0x00000000fe03f2dc                ext4fs_devread
 .text.fdt_check_header
                0x00000000fe03f554       0x6c lib/libfdt/libfdt.o
                0x00000000fe03f554                fdt_check_header
 .text.fdt_offset_ptr
                0x00000000fe03f5c0       0x58 lib/libfdt/libfdt.o
                0x00000000fe03f5c0                fdt_offset_ptr
 .text.fdt_next_tag
                0x00000000fe03f618      0x154 lib/libfdt/libfdt.o
                0x00000000fe03f618                fdt_next_tag
 .text._fdt_check_node_offset
                0x00000000fe03f76c       0x5c lib/libfdt/libfdt.o
                0x00000000fe03f76c                _fdt_check_node_offset
 .text._fdt_check_prop_offset
                0x00000000fe03f7c8       0x5c lib/libfdt/libfdt.o
                0x00000000fe03f7c8                _fdt_check_prop_offset
 .text.fdt_next_node
                0x00000000fe03f824      0x11c lib/libfdt/libfdt.o
                0x00000000fe03f824                fdt_next_node
 .text._fdt_find_string
                0x00000000fe03f940       0xa0 lib/libfdt/libfdt.o
                0x00000000fe03f940                _fdt_find_string
 .text.fdt_move
                0x00000000fe03f9e0       0x80 lib/libfdt/libfdt.o
                0x00000000fe03f9e0                fdt_move
 .text._nextprop
                0x00000000fe03fa60       0x84 lib/libfdt/libfdt.o
 .text.fdt_string
                0x00000000fe03fae4       0x10 lib/libfdt/libfdt.o
                0x00000000fe03fae4                fdt_string
 .text.fdt_get_mem_rsv
                0x00000000fe03faf4       0x9c lib/libfdt/libfdt.o
                0x00000000fe03faf4                fdt_get_mem_rsv
 .text.fdt_num_mem_rsv
                0x00000000fe03fb90       0x40 lib/libfdt/libfdt.o
                0x00000000fe03fb90                fdt_num_mem_rsv
 .text.fdt_subnode_offset_namelen
                0x00000000fe03fbd0      0x138 lib/libfdt/libfdt.o
                0x00000000fe03fbd0                fdt_subnode_offset_namelen
 .text.fdt_get_name
                0x00000000fe03fd08       0xb0 lib/libfdt/libfdt.o
                0x00000000fe03fd08                fdt_get_name
 .text.fdt_first_property_offset
                0x00000000fe03fdb8       0x44 lib/libfdt/libfdt.o
                0x00000000fe03fdb8                fdt_first_property_offset
 .text.fdt_next_property_offset
                0x00000000fe03fdfc       0x44 lib/libfdt/libfdt.o
                0x00000000fe03fdfc                fdt_next_property_offset
 .text.fdt_get_property_by_offset
                0x00000000fe03fe40       0x8c lib/libfdt/libfdt.o
                0x00000000fe03fe40                fdt_get_property_by_offset
 .text.fdt_get_property_namelen
                0x00000000fe03fecc       0xfc lib/libfdt/libfdt.o
                0x00000000fe03fecc                fdt_get_property_namelen
 .text.fdt_get_property
                0x00000000fe03ffc8       0x74 lib/libfdt/libfdt.o
                0x00000000fe03ffc8                fdt_get_property
 .text.fdt_getprop_namelen
                0x00000000fe04003c       0x34 lib/libfdt/libfdt.o
                0x00000000fe04003c                fdt_getprop_namelen
 .text.fdt_getprop
                0x00000000fe040070       0x74 lib/libfdt/libfdt.o
                0x00000000fe040070                fdt_getprop
 .text.fdt_get_alias_namelen
                0x00000000fe0400e4       0x7c lib/libfdt/libfdt.o
                0x00000000fe0400e4                fdt_get_alias_namelen
 .text.fdt_path_offset
                0x00000000fe040160      0x14c lib/libfdt/libfdt.o
                0x00000000fe040160                fdt_path_offset
 .text.fdt_node_offset_by_prop_value
                0x00000000fe0402ac       0xec lib/libfdt/libfdt.o
                0x00000000fe0402ac                fdt_node_offset_by_prop_value
 .text.fdt_node_check_compatible
                0x00000000fe040398       0xf8 lib/libfdt/libfdt.o
                0x00000000fe040398                fdt_node_check_compatible
 .text.fdt_node_offset_by_compatible
                0x00000000fe040490       0xb8 lib/libfdt/libfdt.o
                0x00000000fe040490                fdt_node_offset_by_compatible
 .text._fdt_blocks_misordered
                0x00000000fe040548       0x58 lib/libfdt/libfdt.o
 .text._fdt_rw_check_header
                0x00000000fe0405a0       0x94 lib/libfdt/libfdt.o
 .text._fdt_packblocks
                0x00000000fe040634       0xb4 lib/libfdt/libfdt.o
 .text._fdt_splice
                0x00000000fe0406e8       0x8c lib/libfdt/libfdt.o
 .text._fdt_splice_struct
                0x00000000fe040774       0x70 lib/libfdt/libfdt.o
 .text._fdt_splice_mem_rsv
                0x00000000fe0407e4       0x7c lib/libfdt/libfdt.o
 .text.fdt_add_mem_rsv
                0x00000000fe040860       0xcc lib/libfdt/libfdt.o
                0x00000000fe040860                fdt_add_mem_rsv
 .text.fdt_del_mem_rsv
                0x00000000fe04092c       0x88 lib/libfdt/libfdt.o
                0x00000000fe04092c                fdt_del_mem_rsv
 .text.fdt_setprop
                0x00000000fe0409b4      0x200 lib/libfdt/libfdt.o
                0x00000000fe0409b4                fdt_setprop
 .text.fdt_delprop
                0x00000000fe040bb4       0x94 lib/libfdt/libfdt.o
                0x00000000fe040bb4                fdt_delprop
 .text.fdt_add_subnode_namelen
                0x00000000fe040c48      0x148 lib/libfdt/libfdt.o
                0x00000000fe040c48                fdt_add_subnode_namelen
 .text.fdt_add_subnode
                0x00000000fe040d90       0x64 lib/libfdt/libfdt.o
                0x00000000fe040d90                fdt_add_subnode
 .text.fdt_del_node
                0x00000000fe040df4       0x7c lib/libfdt/libfdt.o
                0x00000000fe040df4                fdt_del_node
 .text.fdt_open_into
                0x00000000fe040e70      0x1e4 lib/libfdt/libfdt.o
                0x00000000fe040e70                fdt_open_into
 .text.fdt_strerror
                0x00000000fe041054       0x70 lib/libfdt/libfdt.o
                0x00000000fe041054                fdt_strerror
 .text._fdt_node_end_offset
                0x00000000fe0410c4       0x5c lib/libfdt/libfdt.o
                0x00000000fe0410c4                _fdt_node_end_offset
 .text.cyg_crc16
                0x00000000fe041120       0x68 lib/libgeneric.o
                0x00000000fe041120                cyg_crc16
 .text.crc32_no_comp
                0x00000000fe041188      0x148 lib/libgeneric.o
                0x00000000fe041188                crc32_no_comp
 .text.crc32    0x00000000fe0412d0       0x28 lib/libgeneric.o
                0x00000000fe0412d0                crc32
 .text.crc32_wd
                0x00000000fe0412f8       0x20 lib/libgeneric.o
                0x00000000fe0412f8                crc32_wd
 .text.display_options
                0x00000000fe041318       0x3c lib/libgeneric.o
                0x00000000fe041318                display_options
 .text.print_size
                0x00000000fe041354      0x204 lib/libgeneric.o
                0x00000000fe041354                print_size
 .text.print_buffer
                0x00000000fe041558      0x254 lib/libgeneric.o
                0x00000000fe041558                print_buffer
 .text.__div64_32
                0x00000000fe0417ac      0x140 lib/libgeneric.o
                0x00000000fe0417ac                __div64_32
 .text.gzfree   0x00000000fe0418ec       0x24 lib/libgeneric.o
                0x00000000fe0418ec                gzfree
 .text.gzalloc  0x00000000fe041910       0x2c lib/libgeneric.o
                0x00000000fe041910                gzalloc
 .text.zunzip   0x00000000fe04193c      0x170 lib/libgeneric.o
                0x00000000fe04193c                zunzip
 .text.gunzip   0x00000000fe041aac       0xe4 lib/libgeneric.o
                0x00000000fe041aac                gunzip
 .text.drop_var_from_set
                0x00000000fe041b90       0xcc lib/libgeneric.o
 .text.cmpkey   0x00000000fe041c5c       0x30 lib/libgeneric.o
 .text.hcreate_r
                0x00000000fe041c8c       0xfc lib/libgeneric.o
                0x00000000fe041c8c                hcreate_r
 .text.hdestroy_r
                0x00000000fe041d88       0xfc lib/libgeneric.o
                0x00000000fe041d88                hdestroy_r
 .text.hmatch_r
                0x00000000fe041e84       0xfc lib/libgeneric.o
                0x00000000fe041e84                hmatch_r
 .text.hsearch_r
                0x00000000fe041f80      0x394 lib/libgeneric.o
                0x00000000fe041f80                hsearch_r
 .text.hdelete_r
                0x00000000fe042314       0xec lib/libgeneric.o
                0x00000000fe042314                hdelete_r
 .text.hexport_r
                0x00000000fe042400      0x368 lib/libgeneric.o
                0x00000000fe042400                hexport_r
 .text.himport_r
                0x00000000fe042768      0x4a8 lib/libgeneric.o
                0x00000000fe042768                himport_r
 .text.lmb_addrs_adjacent
                0x00000000fe042c10       0x30 lib/libgeneric.o
 .text.lmb_remove_region
                0x00000000fe042c40       0x64 lib/libgeneric.o
 .text.lmb_add_region
                0x00000000fe042ca4      0x290 lib/libgeneric.o
 .text.lmb_align_down
                0x00000000fe042f34        0xc lib/libgeneric.o
 .text.lmb_init
                0x00000000fe042f40       0x2c lib/libgeneric.o
                0x00000000fe042f40                lmb_init
 .text.lmb_add  0x00000000fe042f6c       0x20 lib/libgeneric.o
                0x00000000fe042f6c                lmb_add
 .text.lmb_free
                0x00000000fe042f8c      0x11c lib/libgeneric.o
                0x00000000fe042f8c                lmb_free
 .text.lmb_reserve
                0x00000000fe0430a8       0x24 lib/libgeneric.o
                0x00000000fe0430a8                lmb_reserve
 .text.lmb_overlaps_region
                0x00000000fe0430cc       0x68 lib/libgeneric.o
                0x00000000fe0430cc                lmb_overlaps_region
 .text.__lmb_alloc_base
                0x00000000fe043134      0x1ac lib/libgeneric.o
                0x00000000fe043134                __lmb_alloc_base
 .text.lmb_alloc_base
                0x00000000fe0432e0       0x6c lib/libgeneric.o
                0x00000000fe0432e0                lmb_alloc_base
 .text.lmb_alloc
                0x00000000fe04334c       0x24 lib/libgeneric.o
                0x00000000fe04334c                lmb_alloc
 .text.__board_lmb_reserve
                0x00000000fe043370        0x4 lib/libgeneric.o
                0x00000000fe043370                board_lmb_reserve
                0x00000000fe043370                __board_lmb_reserve
 .text.string_to_ip
                0x00000000fe043374       0x98 lib/libgeneric.o
                0x00000000fe043374                string_to_ip
 .text.qsort    0x00000000fe04340c      0x154 lib/libgeneric.o
                0x00000000fe04340c                qsort
 .text.strcmp_compar
                0x00000000fe043560       0x28 lib/libgeneric.o
                0x00000000fe043560                strcmp_compar
 .text.strncat  0x00000000fe043588       0x60 lib/libgeneric.o
                0x00000000fe043588                strncat
 .text.strncmp  0x00000000fe0435e8       0x84 lib/libgeneric.o
                0x00000000fe0435e8                strncmp
 .text.strchr   0x00000000fe04366c       0x44 lib/libgeneric.o
                0x00000000fe04366c                strchr
 .text.strrchr  0x00000000fe0436b0       0x64 lib/libgeneric.o
                0x00000000fe0436b0                strrchr
 .text.strnlen  0x00000000fe043714       0x48 lib/libgeneric.o
                0x00000000fe043714                strnlen
 .text.strdup   0x00000000fe04375c       0x6c lib/libgeneric.o
                0x00000000fe04375c                strdup
 .text.strpbrk  0x00000000fe0437c8       0x64 lib/libgeneric.o
                0x00000000fe0437c8                strpbrk
 .text.strstr   0x00000000fe04382c       0xb8 lib/libgeneric.o
                0x00000000fe04382c                strstr
 .text.strmhz   0x00000000fe0438e4       0x9c lib/libgeneric.o
                0x00000000fe0438e4                strmhz
 .text.udelay   0x00000000fe043980       0x68 lib/libgeneric.o
                0x00000000fe043980                udelay
 .text.mdelay   0x00000000fe0439e8       0x3c lib/libgeneric.o
                0x00000000fe0439e8                mdelay
 .text.skip_atoi
                0x00000000fe043a24       0x58 lib/libgeneric.o
 .text.put_dec_trunc
                0x00000000fe043a7c       0xec lib/libgeneric.o
 .text.string   0x00000000fe043b68      0x11c lib/libgeneric.o
 .text.put_dec  0x00000000fe043c84      0x1ac lib/libgeneric.o
 .text.number   0x00000000fe043e30      0x34c lib/libgeneric.o
 .text.simple_strtoul
                0x00000000fe04417c      0x114 lib/libgeneric.o
                0x00000000fe04417c                simple_strtoul
 .text.strict_strtoul
                0x00000000fe044290       0xcc lib/libgeneric.o
                0x00000000fe044290                strict_strtoul
 .text.simple_strtol
                0x00000000fe04435c       0x3c lib/libgeneric.o
                0x00000000fe04435c                simple_strtol
 .text.simple_strtoull
                0x00000000fe044398      0x168 lib/libgeneric.o
                0x00000000fe044398                simple_strtoull
 .text.vsprintf
                0x00000000fe044500      0xa84 lib/libgeneric.o
                0x00000000fe044500                vsprintf
 .text.sprintf  0x00000000fe044f84       0x5c lib/libgeneric.o
                0x00000000fe044f84                sprintf
 .text.panic    0x00000000fe044fe0       0x7c lib/libgeneric.o
                0x00000000fe044fe0                panic
 .text.zcfree   0x00000000fe04505c       0x24 lib/zlib/libz.o
                0x00000000fe04505c                zcfree
 .text.zcalloc  0x00000000fe045080       0x24 lib/zlib/libz.o
                0x00000000fe045080                zcalloc
 .text.inflate_fast
                0x00000000fe0450a4      0x634 lib/zlib/libz.o
                0x00000000fe0450a4                inflate_fast
 .text.inflate_table
                0x00000000fe0456d8      0x608 lib/zlib/libz.o
                0x00000000fe0456d8                inflate_table
 .text.inflateReset
                0x00000000fe045ce0       0x88 lib/zlib/libz.o
                0x00000000fe045ce0                inflateReset
 .text.inflateInit2_
                0x00000000fe045d68      0x160 lib/zlib/libz.o
                0x00000000fe045d68                inflateInit2_
 .text.inflateEnd
                0x00000000fe045ec8       0x9c lib/zlib/libz.o
                0x00000000fe045ec8                inflateEnd
 .text.adler32  0x00000000fe045f64      0x3f4 lib/zlib/libz.o
                0x00000000fe045f64                adler32
 .text.inflate  0x00000000fe046358     0x1c74 lib/zlib/libz.o
                0x00000000fe046358                inflate
 .text.ArpInit  0x00000000fe047fcc       0x5c net/libnet.o
                0x00000000fe047fcc                ArpInit
 .text.arp_raw_request
                0x00000000fe048028      0x108 net/libnet.o
                0x00000000fe048028                arp_raw_request
 .text.ArpRequest
                0x00000000fe048130       0xa8 net/libnet.o
                0x00000000fe048130                ArpRequest
 .text.ArpTimeoutCheck
                0x00000000fe0481d8       0x98 net/libnet.o
                0x00000000fe0481d8                ArpTimeoutCheck
 .text.ArpReceive
                0x00000000fe048270      0x220 net/libnet.o
                0x00000000fe048270                ArpReceive
 .text.truncate_sz
                0x00000000fe048490       0x5c net/libnet.o
 .text.BootpHandler
                0x00000000fe0484ec      0x440 net/libnet.o
 .text.BootpRequest
                0x00000000fe04892c      0x248 net/libnet.o
                0x00000000fe04892c                BootpRequest
 .text.BootpTimeout
                0x00000000fe048b74       0x5c net/libnet.o
 .text.__def_eth_init
                0x00000000fe048bd0        0x8 net/libnet.o
 .text.eth_current_changed
                0x00000000fe048bd8       0x80 net/libnet.o
 .text.eth_parse_enetaddr
                0x00000000fe048c58       0x8c net/libnet.o
                0x00000000fe048c58                eth_parse_enetaddr
 .text.eth_getenv_enetaddr
                0x00000000fe048ce4       0x7c net/libnet.o
                0x00000000fe048ce4                eth_getenv_enetaddr
 .text.eth_setenv_enetaddr
                0x00000000fe048d60       0x54 net/libnet.o
                0x00000000fe048d60                eth_setenv_enetaddr
 .text.eth_getenv_enetaddr_by_index
                0x00000000fe048db4       0x68 net/libnet.o
                0x00000000fe048db4                eth_getenv_enetaddr_by_index
 .text.eth_get_dev_by_name
                0x00000000fe048e1c       0xb4 net/libnet.o
                0x00000000fe048e1c                eth_get_dev_by_name
 .text.eth_get_dev_index
                0x00000000fe048ed0       0x40 net/libnet.o
                0x00000000fe048ed0                eth_get_dev_index
 .text.eth_write_hwaddr
                0x00000000fe048f10      0x210 net/libnet.o
                0x00000000fe048f10                eth_write_hwaddr
 .text.eth_register
                0x00000000fe049120       0xa4 net/libnet.o
                0x00000000fe049120                eth_register
 .text.eth_initialize
                0x00000000fe0491c4      0x24c net/libnet.o
                0x00000000fe0491c4                eth_initialize
 .text.eth_halt
                0x00000000fe049410       0x58 net/libnet.o
                0x00000000fe049410                eth_halt
 .text.eth_send
                0x00000000fe049468       0x5c net/libnet.o
                0x00000000fe049468                eth_send
 .text.eth_rx   0x00000000fe0494c4       0x50 net/libnet.o
                0x00000000fe0494c4                eth_rx
 .text.eth_try_another
                0x00000000fe049514       0xa8 net/libnet.o
                0x00000000fe049514                eth_try_another
 .text.eth_init
                0x00000000fe0495bc      0x110 net/libnet.o
                0x00000000fe0495bc                eth_init
 .text.eth_set_current
                0x00000000fe0496cc       0xd8 net/libnet.o
                0x00000000fe0496cc                eth_set_current
 .text.eth_get_name
                0x00000000fe0497a4       0x38 net/libnet.o
                0x00000000fe0497a4                eth_get_name
 .text.startAgainTimeout
                0x00000000fe0497dc       0x30 net/libnet.o
 .text.dummy_handler
                0x00000000fe04980c        0x4 net/libnet.o
 .text.net_auto_load
                0x00000000fe049810       0x78 net/libnet.o
                0x00000000fe049810                net_auto_load
 .text.net_set_udp_handler
                0x00000000fe049888       0x44 net/libnet.o
                0x00000000fe049888                net_set_udp_handler
 .text.net_get_arp_handler
                0x00000000fe0498cc       0x2c net/libnet.o
                0x00000000fe0498cc                net_get_arp_handler
 .text.net_set_arp_handler
                0x00000000fe0498f8       0x44 net/libnet.o
                0x00000000fe0498f8                net_set_arp_handler
 .text.NetSetTimeout
                0x00000000fe04993c       0x80 net/libnet.o
                0x00000000fe04993c                NetSetTimeout
 .text.NetStartAgain
                0x00000000fe0499bc      0x158 net/libnet.o
                0x00000000fe0499bc                NetStartAgain
 .text.net_clear_handlers
                0x00000000fe049b14       0x38 net/libnet.o
 .text.net_cleanup_loop
                0x00000000fe049b4c       0x20 net/libnet.o
 .text.NetCksum
                0x00000000fe049b6c       0x54 net/libnet.o
                0x00000000fe049b6c                NetCksum
 .text.NetCksumOk
                0x00000000fe049bc0       0x30 net/libnet.o
                0x00000000fe049bc0                NetCksumOk
 .text.NetReceive
                0x00000000fe049bf0      0x264 net/libnet.o
                0x00000000fe049bf0                NetReceive
 .text.NetEthHdrSize
                0x00000000fe049e54       0x54 net/libnet.o
                0x00000000fe049e54                NetEthHdrSize
 .text.NetSetEther
                0x00000000fe049ea8       0xc8 net/libnet.o
                0x00000000fe049ea8                NetSetEther
 .text.net_update_ether
                0x00000000fe049f70       0x98 net/libnet.o
                0x00000000fe049f70                net_update_ether
 .text.net_set_ip_header
                0x00000000fe04a008       0xa4 net/libnet.o
                0x00000000fe04a008                net_set_ip_header
 .text.net_set_udp_header
                0x00000000fe04a0ac       0xc0 net/libnet.o
                0x00000000fe04a0ac                net_set_udp_header
 .text.NetSendUDPPacket
                0x00000000fe04a16c      0x148 net/libnet.o
                0x00000000fe04a16c                NetSendUDPPacket
 .text.copy_filename
                0x00000000fe04a2b4       0x64 net/libnet.o
                0x00000000fe04a2b4                copy_filename
 .text.ip_to_string
                0x00000000fe04a318       0x4c net/libnet.o
                0x00000000fe04a318                ip_to_string
 .text.string_to_VLAN
                0x00000000fe04a364       0x5c net/libnet.o
                0x00000000fe04a364                string_to_VLAN
 .text.getenv_VLAN
                0x00000000fe04a3c0       0x24 net/libnet.o
                0x00000000fe04a3c0                getenv_VLAN
 .text.NetInitLoop
                0x00000000fe04a3e4       0xdc net/libnet.o
 .text.net_init
                0x00000000fe04a4c0       0x8c net/libnet.o
                0x00000000fe04a4c0                net_init
 .text.NetLoop  0x00000000fe04a54c      0x3b8 net/libnet.o
                0x00000000fe04a54c                NetLoop
 .text.basename
                0x00000000fe04a904       0x6c net/libnet.o
 .text.dirname  0x00000000fe04a970       0x38 net/libnet.o
 .text.rpc_add_credentials
                0x00000000fe04a9a8       0xd4 net/libnet.o
 .text.rpc_lookup_reply
                0x00000000fe04aa7c       0xe4 net/libnet.o
 .text.nfs_mount_reply
                0x00000000fe04ab60       0xcc net/libnet.o
 .text.nfs_umountall_reply
                0x00000000fe04ac2c       0xb8 net/libnet.o
 .text.nfs_lookup_reply
                0x00000000fe04ace4       0xc0 net/libnet.o
 .text.rpc_req  0x00000000fe04ada4      0x124 net/libnet.o
 .text.rpc_lookup_req
                0x00000000fe04aec8       0x5c net/libnet.o
 .text.nfs_mount_req
                0x00000000fe04af24       0xb4 net/libnet.o
 .text.nfs_umountall_req
                0x00000000fe04afd8       0x7c net/libnet.o
 .text.nfs_lookup_req
                0x00000000fe04b054       0xcc net/libnet.o
 .text.nfs_read_req
                0x00000000fe04b120       0xa0 net/libnet.o
 .text.nfs_readlink_req
                0x00000000fe04b1c0       0x78 net/libnet.o
 .text.NfsSend  0x00000000fe04b238       0xc0 net/libnet.o
 .text.nfs_readlink_reply
                0x00000000fe04b2f8      0x140 net/libnet.o
 .text.nfs_read_reply
                0x00000000fe04b438      0x194 net/libnet.o
 .text.NfsHandler
                0x00000000fe04b5cc      0x278 net/libnet.o
 .text.NfsTimeout
                0x00000000fe04b844       0x6c net/libnet.o
 .text.NfsStart
                0x00000000fe04b8b0      0x238 net/libnet.o
                0x00000000fe04b8b0                NfsStart
 .text.ping_timeout
                0x00000000fe04bae8       0x3c net/libnet.o
 .text.ping_start
                0x00000000fe04bb24      0x138 net/libnet.o
                0x00000000fe04bb24                ping_start
 .text.ping_receive
                0x00000000fe04bc5c      0x134 net/libnet.o
                0x00000000fe04bc5c                ping_receive
 .text.TftpSend
                0x00000000fe04bd90      0x1ac net/libnet.o
 .text.TftpTimeout
                0x00000000fe04bf3c       0x8c net/libnet.o
 .text.TftpHandler
                0x00000000fe04bfc8      0x368 net/libnet.o
 .text.TftpStart
                0x00000000fe04c330      0x2fc net/libnet.o
                0x00000000fe04c330                TftpStart
 .text.board_early_init_f
                0x00000000fe04c62c       0x24 board/freescale/mpc8315erdb/libmpc8315erdb.o
                0x00000000fe04c62c                board_early_init_f
 .text.checkboard
                0x00000000fe04c650       0x80 board/freescale/mpc8315erdb/libmpc8315erdb.o
                0x00000000fe04c650                checkboard
 .text.pci_init_board
                0x00000000fe04c6d0      0x140 board/freescale/mpc8315erdb/libmpc8315erdb.o
                0x00000000fe04c6d0                pci_init_board
 .text.fdt_tsec1_fixup
                0x00000000fe04c810       0xec board/freescale/mpc8315erdb/libmpc8315erdb.o
                0x00000000fe04c810                fdt_tsec1_fixup
 .text.ft_board_setup
                0x00000000fe04c8fc       0x64 board/freescale/mpc8315erdb/libmpc8315erdb.o
                0x00000000fe04c8fc                ft_board_setup
 .text.board_eth_init
                0x00000000fe04c960       0x34 board/freescale/mpc8315erdb/libmpc8315erdb.o
                0x00000000fe04c960                board_eth_init
 .text.initdram
                0x00000000fe04c994      0x194 board/freescale/mpc8315erdb/libmpc8315erdb.o
                0x00000000fe04c994                initdram
 .text          0x00000000fe04cb28       0x40 /home/kb310/PPC/tool-chain/lib/gcc/powerpc-e300c3-linux-gnu/4.7.0/libgcc.a(_lshrdi3.o)
                0x00000000fe04cb28                __lshrdi3
                0x00000000fe04cb70                . = ALIGN (0x10)
 *fill*         0x00000000fe04cb68        0x8 00
 *(SORT(.rodata*))
 .rodata        0x00000000fe04cb70      0x154 arch/powerpc/cpu/mpc83xx/libmpc83xx.o
 .rodata        0x00000000fe04ccc4       0x8c arch/powerpc/cpu/mpc8xxx/lib8xxx.o
 .rodata        0x00000000fe04cd50       0x10 common/libcommon.o
 .rodata        0x00000000fe04cd60       0x30 drivers/rtc/librtc.o
 .rodata        0x00000000fe04cd90       0x43 drivers/usb/host/libusb_host.o
 *fill*         0x00000000fe04cdd3        0x1 00
 .rodata        0x00000000fe04cdd4        0xf net/libnet.o
 *fill*         0x00000000fe04cde3        0x1 00
 .rodata.BootpHandler
                0x00000000fe04cde4       0xa4 net/libnet.o
 .rodata.NetLoop
                0x00000000fe04ce88       0x38 net/libnet.o
 .rodata.NfsHandler
                0x00000000fe04cec0       0x20 net/libnet.o
 .rodata.NfsSend
                0x00000000fe04cee0       0x20 net/libnet.o
 .rodata.TftpSend
                0x00000000fe04cf00       0x20 net/libnet.o
 .rodata.__FUNCTION__.4417
                0x00000000fe04cf20       0x14 net/libnet.o
 .rodata.__FUNCTION__.4474
                0x00000000fe04cf34       0x10 common/libcommon.o
 .rodata.__FUNCTION__.4549
                0x00000000fe04cf44       0x11 drivers/mtd/nand/libnand.o
 *fill*         0x00000000fe04cf55        0x3 00
 .rodata.__FUNCTION__.4650
                0x00000000fe04cf58        0xb drivers/mtd/nand/libnand.o
 *fill*         0x00000000fe04cf63        0x1 00
 .rodata.__FUNCTION__.4796
                0x00000000fe04cf64       0x11 drivers/mtd/nand/libnand.o
 *fill*         0x00000000fe04cf75        0x3 00
 .rodata.__FUNCTION__.4882
                0x00000000fe04cf78       0x12 drivers/mtd/nand/libnand.o
 *fill*         0x00000000fe04cf8a        0x2 00
 .rodata.__FUNCTION__.5001
                0x00000000fe04cf8c       0x17 common/libcommon.o
 *fill*         0x00000000fe04cfa3        0x1 00
 .rodata.__FUNCTION__.5122
                0x00000000fe04cfa4        0xe drivers/mtd/nand/libnand.o
 *fill*         0x00000000fe04cfb2        0x2 00
 .rodata.__FUNCTION__.5306
                0x00000000fe04cfb4        0xf drivers/mtd/nand/libnand.o
 *fill*         0x00000000fe04cfc3        0x1 00
 .rodata.__func__.3988
                0x00000000fe04cfc4        0x8 common/libcommon.o
 .rodata.__func__.3994
                0x00000000fe04cfcc       0x10 common/libcommon.o
 .rodata.__func__.4005
                0x00000000fe04cfdc        0xb common/libcommon.o
 *fill*         0x00000000fe04cfe7        0x1 00
 .rodata.__func__.4021
                0x00000000fe04cfe8        0xf fs/ext4/libext4fs.o
 *fill*         0x00000000fe04cff7        0x1 00
 .rodata.__func__.4205
                0x00000000fe04cff8        0xe common/libcommon.o
 *fill*         0x00000000fe04d006        0x2 00
 .rodata.__func__.4239
                0x00000000fe04d008        0xe common/libcommon.o
 *fill*         0x00000000fe04d016        0x2 00
 .rodata.__func__.4324
                0x00000000fe04d018       0x11 drivers/net/phy/libphy.o
 *fill*         0x00000000fe04d029        0x3 00
 .rodata.__func__.4582
                0x00000000fe04d02c        0xf drivers/usb/host/libusb_host.o
 *fill*         0x00000000fe04d03b        0x1 00
 .rodata.__func__.4903
                0x00000000fe04d03c        0xb common/libcommon.o
 *fill*         0x00000000fe04d047        0x1 00
 .rodata.__func__.5215
                0x00000000fe04d048       0x10 drivers/mtd/nand/libnand.o
 .rodata.__func__.5263
                0x00000000fe04d058       0x14 drivers/mtd/nand/libnand.o
 .rodata._ctype
                0x00000000fe04d06c      0x100 lib/libgeneric.o
                0x00000000fe04d06c                _ctype
 .rodata.baudrate_table
                0x00000000fe04d16c       0x28 common/libcommon.o
 .rodata.bcm54xx_parse_status
                0x00000000fe04d194       0x20 drivers/net/phy/libphy.o
 .rodata.binary_test
                0x00000000fe04d1b4       0x30 common/libcommon.o
 .rodata.crc_table
                0x00000000fe04d1e4      0x400 lib/libgeneric.o
 .rodata.default_environment
                0x00000000fe04d5e4      0x3be common/libcommon.o
                0x00000000fe04d5e4                default_environment
 *fill*         0x00000000fe04d9a2        0x2 00
 .rodata.dev_print
                0x00000000fe04d9a4       0x24 disk/libdisk.o
 .rodata.digits.3926
                0x00000000fe04d9c8       0x10 lib/libgeneric.o
 .rodata.do_fdt
                0x00000000fe04d9d8       0x28 common/libcommon.o
 .rodata.do_pci
                0x00000000fe04da00       0x50 common/libcommon.o
 .rodata.ehci_submit_root
                0x00000000fe04da50       0x54 drivers/usb/host/libusb_host.o
 .rodata.erase_seq
                0x00000000fe04daa4        0x4 common/libcommon.o
 .rodata.fdt_next_tag
                0x00000000fe04daa8       0x28 lib/libfdt/libfdt.o
 .rodata.flash_offset_cfi
                0x00000000fe04dad0        0x8 drivers/mtd/libmtd.o
 .rodata.fsl_sata_exec_cmd
                0x00000000fe04dad8       0x18 drivers/block/libblock.o
 .rodata.fsl_sata_info
                0x00000000fe04daf0       0x10 drivers/block/libblock.o
 .rodata.get_clocks
                0x00000000fe04db00       0x30 arch/powerpc/cpu/mpc83xx/libmpc83xx.o
 .rodata.get_partition_info_extended
                0x00000000fe04db30       0x24 disk/libdisk.o
 .rodata.hex_asc
                0x00000000fe04db54       0x11 lib/libgeneric.o
                0x00000000fe04db54                hex_asc
 *fill*         0x00000000fe04db65        0x3 00
 .rodata.i2c_dev
                0x00000000fe04db68        0x8 drivers/i2c/libi2c.o
 .rodata.i82558_config_cmd
                0x00000000fe04db70       0x16 drivers/net/libnet.o
 *fill*         0x00000000fe04db86        0x2 00
 .rodata.inflate
                0x00000000fe04db88       0x74 lib/zlib/libz.o
 .rodata.memsize_parse
                0x00000000fe04dbfc       0x9c common/libcommon.o
 .rodata.mpc83xx_pcie_cfg_space
                0x00000000fe04dc98       0x10 arch/powerpc/cpu/mpc83xx/libmpc83xx.o
 .rodata.names.3836
                0x00000000fe04dca8        0x6 lib/libgeneric.o
 *fill*         0x00000000fe04dcae        0x2 00
 .rodata.nand_ecc_precalc_table
                0x00000000fe04dcb0      0x100 drivers/mtd/nand/libnand.o
 .rodata.nand_scan_tail
                0x00000000fe04ddb0       0x18 drivers/mtd/nand/libnand.o
 .rodata.print_part
                0x00000000fe04ddc8       0x24 disk/libdisk.o
 .rodata.readline_into_buffer
                0x00000000fe04ddec       0x20 common/libcommon.o
 .rodata.serial_ports
                0x00000000fe04de0c       0x10 drivers/serial/libserial.o
 .rodata.srec_decode
                0x00000000fe04de1c       0x28 common/libcommon.o
 .rodata.str1.4
                0x00000000fe04de44      0x756 arch/powerpc/cpu/mpc83xx/libmpc83xx.o
                                        0x77e (size before relaxing)
 *fill*         0x00000000fe04e59a        0x2 00
 .rodata.str1.4
                0x00000000fe04e59c      0x2c8 arch/powerpc/cpu/mpc8xxx/lib8xxx.o
                                        0x2ec (size before relaxing)
 .rodata.str1.4
                0x00000000fe04e864      0x1a9 arch/powerpc/lib/libpowerpc.o
                                        0x1b9 (size before relaxing)
 *fill*         0x00000000fe04ea0d        0x3 00
 .rodata.str1.4
                0x00000000fe04ea10     0x9192 common/libcommon.o
                                       0x97fa (size before relaxing)
 *fill*         0x00000000fe057ba2        0x2 00
 .rodata.str1.4
                0x00000000fe057ba4      0x451 disk/libdisk.o
                                        0x49d (size before relaxing)
 *fill*         0x00000000fe057ff5        0x3 00
 .rodata.str1.4
                0x00000000fe057ff8      0x7ef drivers/block/libblock.o
                                        0x80f (size before relaxing)
 *fill*         0x00000000fe0587e7        0x1 00
 .rodata.str1.4
                0x00000000fe0587e8      0x3ef drivers/mtd/libmtd.o
                                        0x43c (size before relaxing)
 *fill*         0x00000000fe058bd7        0x1 00
 .rodata.str1.4
                0x00000000fe058bd8      0xe87 drivers/mtd/nand/libnand.o
                                        0xedb (size before relaxing)
 *fill*         0x00000000fe059a5f        0x1 00
 .rodata.str1.4
                0x00000000fe059a60      0x303 drivers/net/libnet.o
                                        0x317 (size before relaxing)
 *fill*         0x00000000fe059d63        0x1 00
 .rodata.str1.4
                0x00000000fe059d64      0x30b drivers/net/phy/libphy.o
                                        0x35f (size before relaxing)
 *fill*         0x00000000fe05a06f        0x1 00
 .rodata.str1.4
                0x00000000fe05a070      0x22b drivers/pci/libpci.o
                                        0x230 (size before relaxing)
 *fill*         0x00000000fe05a29b        0x1 00
 .rodata.str1.4
                0x00000000fe05a29c       0x29 drivers/rtc/librtc.o
 *fill*         0x00000000fe05a2c5        0x3 00
 .rodata.str1.4
                0x00000000fe05a2c8      0x1de drivers/usb/host/libusb_host.o
                                        0x209 (size before relaxing)
 *fill*         0x00000000fe05a4a6        0x2 00
 .rodata.str1.4
                0x00000000fe05a4a8      0x37d fs/ext4/libext4fs.o
 *fill*         0x00000000fe05a825        0x3 00
 .rodata.str1.4
                0x00000000fe05a828      0x106 lib/libfdt/libfdt.o
                                        0x136 (size before relaxing)
 *fill*         0x00000000fe05a92e        0x2 00
 .rodata.str1.4
                0x00000000fe05a930      0x20e lib/libgeneric.o
                                        0x216 (size before relaxing)
 *fill*         0x00000000fe05ab3e        0x2 00
 .rodata.str1.4
                0x00000000fe05ab40      0x23d lib/zlib/libz.o
                                        0x241 (size before relaxing)
 *fill*         0x00000000fe05ad7d        0x3 00
 .rodata.str1.4
                0x00000000fe05ad80      0x788 net/libnet.o
                                        0x908 (size before relaxing)
 .rodata.str1.4
                0x00000000fe05b508      0x138 board/freescale/mpc8315erdb/libmpc8315erdb.o
                                        0x15f (size before relaxing)
 .rodata.tab_seq
                0x00000000fe05b640        0x9 common/libcommon.o
 *fill*         0x00000000fe05b649        0x3 00
 .rodata.us_direction
                0x00000000fe05b64c       0x20 common/libcommon.o
 .rodata.usb_display_class_sub
                0x00000000fe05b66c       0x1c common/libcommon.o
 .rodata.vsprintf
                0x00000000fe05b688      0x194 lib/libgeneric.o
 .rodata.xyzModem_error
                0x00000000fe05b81c       0x20 common/libcommon.o
 .rodata.crc16_tab
                0x00000000fe05b83c      0x200 lib/libgeneric.o
 .rodata.dbase.4179
                0x00000000fe05ba3c       0x40 lib/zlib/libz.o
 .rodata.dext.4180
                0x00000000fe05ba7c       0x40 lib/zlib/libz.o
 .rodata.distfix
                0x00000000fe05babc       0x80 lib/zlib/libz.o
 .rodata.lbase.4177
                0x00000000fe05bb3c       0x3e lib/zlib/libz.o
 .rodata.lenfix
                0x00000000fe05bb7a      0x800 lib/zlib/libz.o
 .rodata.lext.4178
                0x00000000fe05c37a       0x3e lib/zlib/libz.o
 .rodata.order.4273
                0x00000000fe05c3b8       0x26 lib/zlib/libz.o

.glink          0x00000000fe05c3de        0x0
 .glink         0x0000000000000000        0x0 arch/powerpc/cpu/mpc83xx/start.o

.eh_frame       0x00000000fe05c3e0        0x0
 .eh_frame      0x0000000000000000        0x0 arch/powerpc/cpu/mpc83xx/start.o

.rela.dyn       0x00000000fe05c3e0        0x0
 .rela.iplt     0x0000000000000000        0x0 arch/powerpc/cpu/mpc83xx/start.o
 .rela.text     0x0000000000000000        0x0 arch/powerpc/cpu/mpc83xx/start.o
 .rela.got2     0x0000000000000000        0x0 arch/powerpc/cpu/mpc83xx/start.o
 .rela.got      0x0000000000000000        0x0 arch/powerpc/cpu/mpc83xx/start.o
 .rela.data.rel.init_sequence
                0x0000000000000000        0x0 arch/powerpc/cpu/mpc83xx/start.o
                0x00000000fe05d000                . = ((. + 0xfff) & 0xfffff000)
                0x00000000fe05d000                _erotext = .
                0x00000000fe05d000                PROVIDE (erotext, .)

.reloc          0x00000000fe05d000     0x3274
                0x00000000fe05d000                _GOT2_TABLE_ = .
 *(.got2)
 .got2          0x00000000fe05d000       0x20 arch/powerpc/cpu/mpc83xx/start.o
 .got2          0x00000000fe05d020        0x0 /home/kb310/PPC/tool-chain/lib/gcc/powerpc-e300c3-linux-gnu/4.7.0/libgcc.a(_lshrdi3.o)
 *(.got)
 .got           0x00000000fe05d020     0x214c arch/powerpc/cpu/mpc83xx/start.o
                0x00000000fe05f160                _GLOBAL_OFFSET_TABLE_
                0x00000000fe05f170                PROVIDE (_GLOBAL_OFFSET_TABLE_, (. + 0x4))
                0x00000000fe05f16c                _FIXUP_TABLE_ = .
 *(.fixup)
 .fixup         0x00000000fe05f16c       0x30 arch/powerpc/cpu/mpc83xx/libmpc83xx.o
 .fixup         0x00000000fe05f19c       0x44 arch/powerpc/cpu/mpc8xxx/lib8xxx.o
 .fixup         0x00000000fe05f1e0       0x34 arch/powerpc/lib/libpowerpc.o
 .fixup         0x00000000fe05f214      0xccc common/libcommon.o
 .fixup         0x00000000fe05fee0       0x10 disk/libdisk.o
 .fixup         0x00000000fe05fef0      0x164 drivers/mtd/nand/libnand.o
 .fixup         0x00000000fe060054        0x8 drivers/net/libnet.o
 .fixup         0x00000000fe06005c      0x1a8 drivers/net/phy/libphy.o
 .fixup         0x00000000fe060204       0x2c lib/libfdt/libfdt.o
 .fixup         0x00000000fe060230       0x28 lib/zlib/libz.o
 .fixup         0x00000000fe060258       0x1c board/freescale/mpc8315erdb/libmpc8315erdb.o
                0x0000000000000857                __got2_entries = (((_GLOBAL_OFFSET_TABLE_ - _GOT2_TABLE_) >> 0x2) - 0x1)
                0x0000000000000442                __fixup_entries = ((. - _FIXUP_TABLE_) >> 0x2)

.data           0x00000000fe060274     0x30dc
 *(.data*)
 .data.rel.ro.local.bits.3928
                0x00000000fe060274       0x40 arch/powerpc/cpu/mpc83xx/libmpc83xx.o
 .data.corecnf_tab
                0x00000000fe0602b4       0xe0 arch/powerpc/cpu/mpc83xx/libmpc83xx.o
                0x00000000fe0602b4                corecnf_tab
 .data          0x00000000fe060394       0x14 arch/powerpc/cpu/mpc8xxx/lib8xxx.o
 .data.rel.ro.local.phy_interface_strings
                0x00000000fe0603a8       0x30 arch/powerpc/cpu/mpc8xxx/lib8xxx.o
 .data.rel.init_sequence
                0x00000000fe0603d8       0x38 arch/powerpc/lib/libpowerpc.o
                0x00000000fe0603d8                init_sequence
 .data.rel.ro.boot_os
                0x00000000fe060410       0x4c common/libcommon.o
 .data.rel.local.cmd_bootm_sub
                0x00000000fe06045c       0xe0 common/libcommon.o
 .data.rel.ro.local.weekdays
                0x00000000fe06053c       0x1c common/libcommon.o
 .data.root.4623
                0x00000000fe060558        0x2 common/libcommon.o
 *fill*         0x00000000fe06055a        0x2 00
 .data.tabs.4705
                0x00000000fe06055c       0x21 common/libcommon.o
 *fill*         0x00000000fe06057d        0x3 00
 .data.i2c_dp_last_length
                0x00000000fe060580        0x4 common/libcommon.o
 .data.rel.local.cmd_i2c_sub
                0x00000000fe060584      0x118 common/libcommon.o
 .data.rel.ro.local.op_table
                0x00000000fe06069c       0x68 common/libcommon.o
 .data.do_echo  0x00000000fe060704        0x4 common/libcommon.o
 .data.dp_last_length
                0x00000000fe060708        0x4 common/libcommon.o
 .data.rel.ro.local.reg_0_desc_tbl
                0x00000000fe06070c       0x78 common/libcommon.o
 .data.rel.ro.local.reg_5_desc_tbl
                0x00000000fe060784       0x90 common/libcommon.o
 .data.rel.ro.local.reg_4_desc_tbl
                0x00000000fe060814       0x90 common/libcommon.o
 .data.rel.ro.local.reg_1_desc_tbl
                0x00000000fe0608a4       0xc0 common/libcommon.o
 .data.rel.ro.local.reg_2_desc_tbl
                0x00000000fe060964        0xc common/libcommon.o
 .data.rel.ro.local.reg_3_desc_tbl
                0x00000000fe060970       0x24 common/libcommon.o
 .data.rel.ro.local.reg_0_5_desc_tbl
                0x00000000fe060994       0x30 common/libcommon.o
 .data.rel.ro.local.desc_and_len_tbl
                0x00000000fe0609c4       0x30 common/libcommon.o
 .data.env_id   0x00000000fe0609f4        0x4 common/libcommon.o
 .data.rel.cmd_env_sub
                0x00000000fe0609f8       0xfc common/libcommon.o
 .data.usb_stor_curr_dev
                0x00000000fe060af4        0x4 common/libcommon.o
 .data.trim_threshold
                0x00000000fe060af8        0x4 common/libcommon.o
 .data.sbrk_base
                0x00000000fe060afc        0x4 common/libcommon.o
 .data.rel.local.av_
                0x00000000fe060b00      0x408 common/libcommon.o
 .data.rel.env_htab
                0x00000000fe060f08       0x10 common/libcommon.o
                0x00000000fe060f08                env_htab
 .data.rel.local.of_busses
                0x00000000fe060f18       0x14 common/libcommon.o
 .data.rel.local.reserved_list
                0x00000000fe060f2c       0x84 common/libcommon.o
 .data.rel.ro.local.uimage_os
                0x00000000fe060fb0       0x54 common/libcommon.o
 .data.rel.ro.local.uimage_type
                0x00000000fe061004       0xcc common/libcommon.o
 .data.rel.ro.local.uimage_comp
                0x00000000fe0610d0       0x48 common/libcommon.o
 .data.rel.ro.local.uimage_arch
                0x00000000fe061118       0xfc common/libcommon.o
 .data.hist_cur
                0x00000000fe061214        0x4 common/libcommon.o
 .data.rel.local.stdio_names
                0x00000000fe061218        0xc common/libcommon.o
                0x00000000fe061218                stdio_names
 .data.rel.ro.block_drvr
                0x00000000fe061224       0x18 disk/libdisk.o
 .data          0x00000000fe06123c        0x4 drivers/i2c/libi2c.o
 .data.i2c_bus_speed
                0x00000000fe061240        0x8 drivers/i2c/libi2c.o
 .data.rel.local.bbt_main_descr
                0x00000000fe061248       0x48 drivers/mtd/nand/libnand.o
 .data.rel.local.bbt_mirror_no_bbt_descr
                0x00000000fe061290       0x24 drivers/mtd/nand/libnand.o
 .data.mirror_pattern
                0x00000000fe0612b4        0x8 drivers/mtd/nand/libnand.o
 .data.scan_agand_pattern
                0x00000000fe0612bc        0x6 drivers/mtd/nand/libnand.o
 *fill*         0x00000000fe0612c2        0x2 00
 .data.bbt_pattern
                0x00000000fe0612c4        0x8 drivers/mtd/nand/libnand.o
 .data.scan_ff_pattern
                0x00000000fe0612cc        0x5 drivers/mtd/nand/libnand.o
 *fill*         0x00000000fe0612d1        0x3 00
 .data.rel.local.bbt_main_no_bbt_descr
                0x00000000fe0612d4       0x24 drivers/mtd/nand/libnand.o
 .data.rel.local.agand_flashbased
                0x00000000fe0612f8       0x24 drivers/mtd/nand/libnand.o
 .data.rel.local.bbt_mirror_descr
                0x00000000fe06131c       0x48 drivers/mtd/nand/libnand.o
 .data.rel.ro.local.nand_manuf_ids
                0x00000000fe061364       0x50 drivers/mtd/nand/libnand.o
                0x00000000fe061364                nand_manuf_ids
 .data.rel.ro.local.nand_flash_ids
                0x00000000fe0613b4      0x6c0 drivers/mtd/nand/libnand.o
                0x00000000fe0613b4                nand_flash_ids
 .data.nand_oob_8
                0x00000000fe061a74      0x248 drivers/mtd/nand/libnand.o
 .data.nand_oob_16
                0x00000000fe061cbc      0x248 drivers/mtd/nand/libnand.o
 .data.nand_oob_128
                0x00000000fe061f04      0x248 drivers/mtd/nand/libnand.o
 .data.nand_oob_64
                0x00000000fe06214c      0x248 drivers/mtd/nand/libnand.o
 .data.fsl_elbc_oob_sp_eccm0
                0x00000000fe062394      0x248 drivers/mtd/nand/libnand.o
 .data.fsl_elbc_oob_sp_eccm1
                0x00000000fe0625dc      0x248 drivers/mtd/nand/libnand.o
 .data.rel.local.largepage_memorybased
                0x00000000fe062824       0x24 drivers/mtd/nand/libnand.o
 .data.fsl_elbc_oob_lp_eccm0
                0x00000000fe062848      0x248 drivers/mtd/nand/libnand.o
 .data.fsl_elbc_oob_lp_eccm1
                0x00000000fe062a90      0x248 drivers/mtd/nand/libnand.o
 .data.supported
                0x00000000fe062cd8       0x20 drivers/net/libnet.o
 .data.rel.local.tsec_info
                0x00000000fe062cf8       0x1c drivers/net/libnet.o
 .data.rel.local.phy_drivers
                0x00000000fe062d14        0x8 drivers/net/phy/libphy.o
 .data.rel.genphy_driver
                0x00000000fe062d1c       0x2c drivers/net/phy/libphy.o
 .data.rel.AR8021_driver
                0x00000000fe062d48       0x2c drivers/net/phy/libphy.o
                0x00000000fe062d48                AR8021_driver
 .data.rel.BCM5464S_driver
                0x00000000fe062d74       0x2c drivers/net/phy/libphy.o
 .data.rel.BCM5482S_driver
                0x00000000fe062da0       0x2c drivers/net/phy/libphy.o
 .data.rel.BCM5461S_driver
                0x00000000fe062dcc       0x2c drivers/net/phy/libphy.o
 .data.rel.DM9161_driver
                0x00000000fe062df8       0x2c drivers/net/phy/libphy.o
 .data.rel.LXT971_driver
                0x00000000fe062e24       0x2c drivers/net/phy/libphy.o
 .data.rel.M88E1121R_driver
                0x00000000fe062e50       0x2c drivers/net/phy/libphy.o
 .data.rel.M88E1149S_driver
                0x00000000fe062e7c       0x2c drivers/net/phy/libphy.o
 .data.rel.M88E1145_driver
                0x00000000fe062ea8       0x2c drivers/net/phy/libphy.o
 .data.rel.M88E1011S_driver
                0x00000000fe062ed4       0x2c drivers/net/phy/libphy.o
 .data.rel.M88E1111S_driver
                0x00000000fe062f00       0x2c drivers/net/phy/libphy.o
 .data.rel.M88E1118_driver
                0x00000000fe062f2c       0x2c drivers/net/phy/libphy.o
 .data.rel.KSZ804_driver
                0x00000000fe062f58       0x2c drivers/net/phy/libphy.o
 .data.rel.KS8721_driver
                0x00000000fe062f84       0x2c drivers/net/phy/libphy.o
 .data.rel.DP83865_driver
                0x00000000fe062fb0       0x2c drivers/net/phy/libphy.o
 .data.rel.RTL8211B_driver
                0x00000000fe062fdc       0x2c drivers/net/phy/libphy.o
 .data.rel.VSC8641_driver
                0x00000000fe063008       0x2c drivers/net/phy/libphy.o
 .data.rel.VSC8221_driver
                0x00000000fe063034       0x2c drivers/net/phy/libphy.o
 .data.rel.VSC8662_driver
                0x00000000fe063060       0x2c drivers/net/phy/libphy.o
 .data.rel.VSC8601_driver
                0x00000000fe06308c       0x2c drivers/net/phy/libphy.o
 .data.rel.VSC8244_driver
                0x00000000fe0630b8       0x2c drivers/net/phy/libphy.o
 .data.rel.VSC8211_driver
                0x00000000fe0630e4       0x2c drivers/net/phy/libphy.o
 .data.rel.cis8201_driver
                0x00000000fe063110       0x2c drivers/net/phy/libphy.o
 .data.rel.VSC8234_driver
                0x00000000fe06313c       0x2c drivers/net/phy/libphy.o
 .data.rel.cis8204_driver
                0x00000000fe063168       0x2c drivers/net/phy/libphy.o
 .data.month_days
                0x00000000fe063194       0x30 drivers/rtc/librtc.o
 .data.descriptor
                0x00000000fe0631c4       0x36 drivers/usb/host/libusb_host.o
 *fill*         0x00000000fe0631fa        0x2 00
 .data.rel.ro.local.fdt_errtable
                0x00000000fe0631fc       0x34 lib/libfdt/libfdt.o
 .data.rel.ro.local.z_errmsg
                0x00000000fe063230       0x28 lib/zlib/libz.o
                0x00000000fe063230                z_errmsg
 .data.first_call.3971
                0x00000000fe063258        0x4 net/libnet.o
 .data.nfs_offset
                0x00000000fe06325c        0x4 net/libnet.o
 .data.TftpTimeoutCountMax
                0x00000000fe063260        0x4 net/libnet.o
 .data.TftpBlkSizeOption
                0x00000000fe063264        0x2 net/libnet.o
 *fill*         0x00000000fe063266        0x2 00
 .data.TftpTimeoutMSecs
                0x00000000fe063268        0x4 net/libnet.o
 .data.TftpBlkSize
                0x00000000fe06326c        0x2 net/libnet.o
 *fill*         0x00000000fe06326e        0x2 00
 .data          0x00000000fe063270        0x8 board/freescale/mpc8315erdb/libmpc8315erdb.o
 .data.pci_regions
                0x00000000fe063278       0x3c board/freescale/mpc8315erdb/libmpc8315erdb.o
 .data.pcie_regions_0
                0x00000000fe0632b4       0x28 board/freescale/mpc8315erdb/libmpc8315erdb.o
 .data.pcie_regions_1
                0x00000000fe0632dc       0x28 board/freescale/mpc8315erdb/libmpc8315erdb.o
 .data.rel.ro.local.rev_str.5587
                0x00000000fe063304       0x14 board/freescale/mpc8315erdb/libmpc8315erdb.o
 *(.sdata*)
 .sdata.load_addr
                0x00000000fe063318        0x4 common/libcommon.o
                0x00000000fe063318                load_addr
 .sdata.sata_curr_device
                0x00000000fe06331c        0x4 common/libcommon.o
                0x00000000fe06331c                sata_curr_device
 .sdata.env_name_spec
                0x00000000fe063320        0x4 common/libcommon.o
                0x00000000fe063320                env_name_spec
 .sdata.env_ptr
                0x00000000fe063324        0x4 common/libcommon.o
                0x00000000fe063324                env_ptr
 .sdata.board_hwconfig
                0x00000000fe063328        0x1 common/libcommon.o
                0x00000000fe063328                board_hwconfig
 *fill*         0x00000000fe063329        0x3 00
 .sdata.cpu_hwconfig
                0x00000000fe06332c        0x1 common/libcommon.o
                0x00000000fe06332c                cpu_hwconfig
 *fill*         0x00000000fe06332d        0x3 00
 .sdata.nand_curr_device
                0x00000000fe063330        0x4 drivers/mtd/nand/libnand.o
                0x00000000fe063330                nand_curr_device
 .sdata.ext4fs_indir1_blkno
                0x00000000fe063334        0x4 fs/ext4/libext4fs.o
                0x00000000fe063334                ext4fs_indir1_blkno
 .sdata.ext4fs_indir2_blkno
                0x00000000fe063338        0x4 fs/ext4/libext4fs.o
                0x00000000fe063338                ext4fs_indir2_blkno
 .sdata.ext4fs_indir3_blkno
                0x00000000fe06333c        0x4 fs/ext4/libext4fs.o
                0x00000000fe06333c                ext4fs_indir3_blkno
 .sdata.NetOurVLAN
                0x00000000fe063340        0x2 net/libnet.o
                0x00000000fe063340                NetOurVLAN
 .sdata.NetOurNativeVLAN
                0x00000000fe063342        0x2 net/libnet.o
                0x00000000fe063342                NetOurNativeVLAN
 .sdata.NetBcastAddr
                0x00000000fe063344        0x6 net/libnet.o
                0x00000000fe063344                NetBcastAddr
 *fill*         0x00000000fe06334a        0x2 00
 .sdata.TftpRRQTimeoutCountMax
                0x00000000fe06334c        0x4 net/libnet.o
                0x00000000fe06334c                TftpRRQTimeoutCountMax
                0x00000000fe063350                _edata = .
                0x00000000fe063350                PROVIDE (edata, .)
                0x00000000fe063350                . = .
                0x00000000fe063350                __u_boot_cmd_start = .

.u_boot_cmd     0x00000000fe063350      0x700
 *(.u_boot_cmd)
 .u_boot_cmd    0x00000000fe063350       0x1c arch/powerpc/cpu/mpc83xx/libmpc83xx.o
                0x00000000fe063350                __u_boot_cmd_clocks
 .u_boot_cmd    0x00000000fe06336c      0x6e4 common/libcommon.o
                0x00000000fe06336c                __u_boot_cmd_bdinfo
                0x00000000fe063388                __u_boot_cmd_reset
                0x00000000fe0633a4                __u_boot_cmd_go
                0x00000000fe0633c0                __u_boot_cmd_imls
                0x00000000fe0633dc                __u_boot_cmd_iminfo
                0x00000000fe0633f8                __u_boot_cmd_bootd
                0x00000000fe063414                __u_boot_cmd_boot
                0x00000000fe063430                __u_boot_cmd_bootm
                0x00000000fe06344c                __u_boot_cmd_coninfo
                0x00000000fe063468                __u_boot_cmd_date
                0x00000000fe063484                __u_boot_cmd_echo
                0x00000000fe0634a0                __u_boot_cmd_exit
                0x00000000fe0634bc                __u_boot_cmd_ext2load
                0x00000000fe0634d8                __u_boot_cmd_ext2ls
                0x00000000fe0634f4                __u_boot_cmd_fdt
                0x00000000fe063510                __u_boot_cmd_protect
                0x00000000fe06352c                __u_boot_cmd_erase
                0x00000000fe063548                __u_boot_cmd_flinfo
                0x00000000fe063564                __u_boot_cmd_question_mark
                0x00000000fe063580                __u_boot_cmd_help
                0x00000000fe06359c                __u_boot_cmd_i2c
                0x00000000fe0635b8                __u_boot_cmd_itest
                0x00000000fe0635d4                __u_boot_cmd_loady
                0x00000000fe0635f0                __u_boot_cmd_loadb
                0x00000000fe06360c                __u_boot_cmd_loads
                0x00000000fe063628                __u_boot_cmd_mdio
                0x00000000fe063644                __u_boot_cmd_mtest
                0x00000000fe063660                __u_boot_cmd_loop
                0x00000000fe06367c                __u_boot_cmd_base
                0x00000000fe063698                __u_boot_cmd_crc32
                0x00000000fe0636b4                __u_boot_cmd_cmp
                0x00000000fe0636d0                __u_boot_cmd_cp
                0x00000000fe0636ec                __u_boot_cmd_mw
                0x00000000fe063708                __u_boot_cmd_nm
                0x00000000fe063724                __u_boot_cmd_mm
                0x00000000fe063740                __u_boot_cmd_md
                0x00000000fe06375c                __u_boot_cmd_mii
                0x00000000fe063778                __u_boot_cmd_sleep
                0x00000000fe063794                __u_boot_cmd_mtdparts
                0x00000000fe0637b0                __u_boot_cmd_chpart
                0x00000000fe0637cc                __u_boot_cmd_nboot
                0x00000000fe0637e8                __u_boot_cmd_nand
                0x00000000fe063804                __u_boot_cmd_ping
                0x00000000fe063820                __u_boot_cmd_nfs
                0x00000000fe06383c                __u_boot_cmd_tftpboot
                0x00000000fe063858                __u_boot_cmd_bootp
                0x00000000fe063874                __u_boot_cmd_run
                0x00000000fe063890                __u_boot_cmd_setenv
                0x00000000fe0638ac                __u_boot_cmd_printenv
                0x00000000fe0638c8                __u_boot_cmd_editenv
                0x00000000fe0638e4                __u_boot_cmd_env
                0x00000000fe063900                __u_boot_cmd_saveenv
                0x00000000fe06391c                __u_boot_cmd_pci
                0x00000000fe063938                __u_boot_cmd_sata
                0x00000000fe063954                __u_boot_cmd_source
                0x00000000fe063970                __u_boot_cmd_true
                0x00000000fe06398c                __u_boot_cmd_false
                0x00000000fe0639a8                __u_boot_cmd_test
                0x00000000fe0639c4                __u_boot_cmd_usbboot
                0x00000000fe0639e0                __u_boot_cmd_usb
                0x00000000fe0639fc                __u_boot_cmd_version
                0x00000000fe063a18                __u_boot_cmd_imxtract
                0x00000000fe063a34                __u_boot_cmd_showvar
                0x00000000fe063a50                __u_boot_cmd_end = .
                0x00000000fe063a50                . = .
                0x00000000fe063a50                __start___ex_table = .

__ex_table
 *(__ex_table)
                0x00000000fe063a50                __stop___ex_table = .
                0x00000000fe064000                . = ALIGN (0x1000)
                0x00000000fe064000                __init_begin = .

.text.init
 *(.text.init)

.data.init
 *(.data.init)
                0x00000000fe064000                . = ALIGN (0x1000)
                0x00000000fe064000                __init_end = .
                0x00000000fe064000                __bss_start = .

.bss            0x00000000fe064000    0x12948
 *(.bss*)
 .bss.pci_hose  0x00000000fe064000      0x1c0 arch/powerpc/cpu/mpc83xx/libmpc83xx.o
 .bss.pci_num_buses
                0x00000000fe0641c0        0x4 arch/powerpc/cpu/mpc83xx/libmpc83xx.o
 .bss.timestamp
                0x00000000fe0641c4        0x4 arch/powerpc/lib/libpowerpc.o
 .bss.decrementer_count
                0x00000000fe0641c8        0x4 arch/powerpc/lib/libpowerpc.o
 .bss.data.4616
                0x00000000fe0641cc      0x400 common/libcommon.o
 .bss.i2c_mm_last_addr
                0x00000000fe0645cc        0x4 common/libcommon.o
 .bss.i2c_mm_last_chip
                0x00000000fe0645d0        0x1 common/libcommon.o
 *fill*         0x00000000fe0645d1        0x3 00
 .bss.i2c_mm_last_alen
                0x00000000fe0645d4        0x4 common/libcommon.o
 .bss.i2c_dp_last_addr
                0x00000000fe0645d8        0x4 common/libcommon.o
 .bss.i2c_dp_last_chip
                0x00000000fe0645dc        0x1 common/libcommon.o
 *fill*         0x00000000fe0645dd        0x3 00
 .bss.i2c_dp_last_alen
                0x00000000fe0645e0        0x4 common/libcommon.o
 .bss.os_data_addr_saved
                0x00000000fe0645e4        0x4 common/libcommon.o
 .bss.a_b       0x00000000fe0645e8       0x18 common/libcommon.o
 .bss.os_data_state
                0x00000000fe064600        0x4 common/libcommon.o
 .bss.k_data_escape
                0x00000000fe064604        0x4 common/libcommon.o
 .bss.os_data_addr
                0x00000000fe064608        0x4 common/libcommon.o
 .bss.bin_start_address
                0x00000000fe06460c        0x4 common/libcommon.o
 .bss.k_data_escape_saved
                0x00000000fe064610        0x4 common/libcommon.o
 .bss.os_data_state_saved
                0x00000000fe064614        0x4 common/libcommon.o
 .bss.last_reg_hi
                0x00000000fe064618        0x8 common/libcommon.o
 .bss.last_data
                0x00000000fe064620        0x8 common/libcommon.o
 .bss.last_devad_hi
                0x00000000fe064628        0x4 common/libcommon.o
 .bss.last_reg_lo
                0x00000000fe06462c        0x8 common/libcommon.o
 .bss.last_addr_lo
                0x00000000fe064634        0x8 common/libcommon.o
 .bss.last_op   0x00000000fe06463c        0x6 common/libcommon.o
 *fill*         0x00000000fe064642        0x2 00
 .bss.last_addr_hi
                0x00000000fe064644        0x8 common/libcommon.o
 .bss.last_devad_lo
                0x00000000fe06464c        0x4 common/libcommon.o
 .bss.dp_last_addr
                0x00000000fe064650        0x4 common/libcommon.o
 .bss.base_address
                0x00000000fe064654        0x4 common/libcommon.o
 .bss.mm_last_size
                0x00000000fe064658        0x4 common/libcommon.o
 .bss.mm_last_addr
                0x00000000fe06465c        0x4 common/libcommon.o
 .bss.dp_last_size
                0x00000000fe064660        0x4 common/libcommon.o
 .bss.last_ids  0x00000000fe064664       0x80 common/libcommon.o
 .bss.initialized.5092
                0x00000000fe0646e4        0x4 common/libcommon.o
 .bss.last_parts
                0x00000000fe0646e8      0x200 common/libcommon.o
 .bss.last_partition
                0x00000000fe0648e8       0x10 common/libcommon.o
 .bss.last.4839
                0x00000000fe0648f8        0x8 common/libcommon.o
 .bss.tmp_buf.3884
                0x00000000fe064900      0x200 common/libcommon.o
 .bss.tmp_buf   0x00000000fe064b00      0x100 common/libcommon.o
 .bss.ctrlc_was_pressed
                0x00000000fe064c00        0x4 common/libcommon.o
 .bss.ctrlc_disabled
                0x00000000fe064c04        0x4 common/libcommon.o
 .bss.max_total_mem
                0x00000000fe064c08        0x4 common/libcommon.o
 .bss.max_sbrked_mem
                0x00000000fe064c0c        0x4 common/libcommon.o
 .bss.top_pad   0x00000000fe064c10        0x4 common/libcommon.o
 .bss.current_mallinfo
                0x00000000fe064c14       0x28 common/libcommon.o
 .bss.flag_repeat
                0x00000000fe064c3c        0x4 common/libcommon.o
 .bss.the_command.4088
                0x00000000fe064c40      0x100 common/libcommon.o
 .bss.buf.4288  0x00000000fe064d40       0x28 common/libcommon.o
 .bss.ifs       0x00000000fe064d68        0x4 common/libcommon.o
 .bss.map       0x00000000fe064d6c      0x100 common/libcommon.o
 .bss.do_repeat
                0x00000000fe064e6c        0x4 common/libcommon.o
 .bss.top_vars  0x00000000fe064e70        0x4 common/libcommon.o
 .bss.hist_max  0x00000000fe064e74        0x4 common/libcommon.o
 .bss.initted.4082
                0x00000000fe064e78        0x4 common/libcommon.o
 .bss.hist_add_idx
                0x00000000fe064e7c        0x4 common/libcommon.o
 .bss.current_mii
                0x00000000fe064e80        0x4 common/libcommon.o
 .bss.mii_devs  0x00000000fe064e84        0x8 common/libcommon.o
 .bss.devs      0x00000000fe064e8c       0x3c common/libcommon.o
 .bss.stdio_devices
                0x00000000fe064ec8        0xc common/libcommon.o
                0x00000000fe064ec8                stdio_devices
 .bss.dev_index
                0x00000000fe064ed4        0x4 common/libcommon.o
 .bss.running   0x00000000fe064ed8        0x4 common/libcommon.o
 *fill*         0x00000000fe064edc        0x4 00
 .bss.usb_dev   0x00000000fe064ee0     0xac00 common/libcommon.o
 .bss.asynch_allowed
                0x00000000fe06fae0        0x4 common/libcommon.o
 .bss.usb_hub_index
                0x00000000fe06fae4        0x4 common/libcommon.o
 .bss.hub_dev   0x00000000fe06fae8      0x100 common/libcommon.o
 .bss.usb_stor  0x00000000fe06fbe8      0x104 common/libcommon.o
 .bss.usb_dev_desc
                0x00000000fe06fcec      0x230 common/libcommon.o
 .bss.usb_max_devs
                0x00000000fe06ff1c        0x4 common/libcommon.o
 .bss.CBWTag    0x00000000fe06ff20        0x4 common/libcommon.o
 *fill*         0x00000000fe06ff24       0x1c 00
 .bss.usb_ccb   0x00000000fe06ff40       0xa0 common/libcommon.o
 .bss.xyz       0x00000000fe06ffe0      0x43c common/libcommon.o
 .bss.saved_sector.4168
                0x00000000fe07041c        0x4 drivers/mtd/libmtd.o
 .bss.saved_info.4169
                0x00000000fe070420        0x4 drivers/mtd/libmtd.o
 .bss.total_nand_size
                0x00000000fe070424        0x4 drivers/mtd/nand/libnand.o
 .bss.dev_name  0x00000000fe070428        0x8 drivers/mtd/nand/libnand.o
 .bss.elbc_ctrl
                0x00000000fe070430        0x4 drivers/mtd/nand/libnand.o
 .bss.tx_ring   0x00000000fe070434       0x20 drivers/net/libnet.o
 .bss.rx_next   0x00000000fe070454        0x4 drivers/net/libnet.o
 .bss.tx_threshold
                0x00000000fe070458        0x4 drivers/net/libnet.o
 .bss.rx_ring   0x00000000fe07045c     0x1840 drivers/net/libnet.o
 .bss.tx_next   0x00000000fe071c9c        0x4 drivers/net/libnet.o
 .bss.rtx       0x00000000fe071ca0       0x30 drivers/net/libnet.o
 .bss.privlist  0x00000000fe071cd0       0x20 drivers/net/libnet.o
 .bss.txIdx     0x00000000fe071cf0        0x4 drivers/net/libnet.o
 .bss.num_tsecs
                0x00000000fe071cf4        0x4 drivers/net/libnet.o
 .bss.rxIdx     0x00000000fe071cf8        0x4 drivers/net/libnet.o
 .bss.hose_head
                0x00000000fe071cfc        0x4 drivers/pci/libpci.o
 .bss.portreset
                0x00000000fe071d00        0x2 drivers/usb/host/libusb_host.o
 *fill*         0x00000000fe071d02       0x1e 00
 .bss.__qh_list
                0x00000000fe071d20       0x60 drivers/usb/host/libusb_host.o
 .bss.symlinknest
                0x00000000fe071d80        0x4 fs/ext4/libext4fs.o
 .bss.part_info
                0x00000000fe071d84        0x4 fs/ext4/libext4fs.o
 .bss.ext4fs_block_dev_desc
                0x00000000fe071d88        0x4 fs/ext4/libext4fs.o
 .bss.env_changed_id.4498
                0x00000000fe071d8c        0x4 net/libnet.o
 .bss.act.4497  0x00000000fe071d90        0x4 net/libnet.o
 .bss.first_failed.4492
                0x00000000fe071d94        0x4 net/libnet.o
 .bss.index.4445
                0x00000000fe071d98        0x4 net/libnet.o
 .bss.eth_devices
                0x00000000fe071d9c        0x4 net/libnet.o
 .bss.timeHandler
                0x00000000fe071da0        0x4 net/libnet.o
 .bss.udp_packet_handler
                0x00000000fe071da4        0x4 net/libnet.o
 .bss.NetRestarted
                0x00000000fe071da8        0x4 net/libnet.o
 .bss.NetTryCount
                0x00000000fe071dac        0x4 net/libnet.o
 .bss.timeDelta
                0x00000000fe071db0        0x4 net/libnet.o
 .bss.NetDevExists
                0x00000000fe071db4        0x4 net/libnet.o
 .bss.NetOurHostName
                0x00000000fe071db8       0x20 net/libnet.o
                0x00000000fe071db8                NetOurHostName
 .bss.NetOurRootPath
                0x00000000fe071dd8       0x40 net/libnet.o
                0x00000000fe071dd8                NetOurRootPath
 .bss.timeStart
                0x00000000fe071e18        0x4 net/libnet.o
 .bss.NetOurNISDomain
                0x00000000fe071e1c       0x20 net/libnet.o
                0x00000000fe071e1c                NetOurNISDomain
 .bss.env_changed_id.3960
                0x00000000fe071e3c        0x4 net/libnet.o
 .bss.arp_packet_handler
                0x00000000fe071e40        0x4 net/libnet.o
 .bss.NfsOurPort
                0x00000000fe071e44        0x4 net/libnet.o
 .bss.NfsServerIP
                0x00000000fe071e48        0x4 net/libnet.o
 .bss.nfs_filename
                0x00000000fe071e4c        0x4 net/libnet.o
 .bss.nfs_len   0x00000000fe071e50        0x4 net/libnet.o
 .bss.NfsSrvMountPort
                0x00000000fe071e54        0x4 net/libnet.o
 .bss.dirfh     0x00000000fe071e58       0x20 net/libnet.o
 .bss.NfsSrvNfsPort
                0x00000000fe071e78        0x4 net/libnet.o
 .bss.rpc_id    0x00000000fe071e7c        0x4 net/libnet.o
 .bss.fs_mounted
                0x00000000fe071e80        0x4 net/libnet.o
 .bss.nfs_download_state
                0x00000000fe071e84        0x4 net/libnet.o
 .bss.nfs_path_buff
                0x00000000fe071e88      0x800 net/libnet.o
 .bss.nfs_path  0x00000000fe072688        0x4 net/libnet.o
 .bss.filefh    0x00000000fe07268c       0x20 net/libnet.o
 .bss.NfsState  0x00000000fe0726ac        0x4 net/libnet.o
 .bss.default_filename
                0x00000000fe0726b0       0x4d net/libnet.o
 *fill*         0x00000000fe0726fd        0x3 00
 .bss.NfsTimeoutCount
                0x00000000fe072700        0x4 net/libnet.o
 .bss.PingSeqNo
                0x00000000fe072704        0x2 net/libnet.o
 *fill*         0x00000000fe072706        0x2 00
 .bss.TftpTimeoutCount
                0x00000000fe072708        0x4 net/libnet.o
 .bss.TftpRemoteIP
                0x00000000fe07270c        0x4 net/libnet.o
 .bss.TftpBlockWrap
                0x00000000fe072710        0x4 net/libnet.o
 .bss.TftpBlock
                0x00000000fe072714        0x4 net/libnet.o
 .bss.TftpOurPort
                0x00000000fe072718        0x4 net/libnet.o
 .bss.TftpState
                0x00000000fe07271c        0x4 net/libnet.o
 .bss.TftpRemotePort
                0x00000000fe072720        0x4 net/libnet.o
 .bss.TftpBlockWrapOffset
                0x00000000fe072724        0x4 net/libnet.o
 .bss.TftpLastBlock
                0x00000000fe072728        0x4 net/libnet.o
 .bss.tftp_filename
                0x00000000fe07272c       0x80 net/libnet.o
 *(.sbss*)
 .sbss          0x0000000000000000        0x0 arch/powerpc/cpu/mpc83xx/start.o
 .sbss          0x00000000fe0727ac        0x4 arch/powerpc/lib/libpowerpc.o
                0x00000000fe0727ac                monitor_flash_len
 .sbss.current_mtd_partnum
                0x00000000fe0727b0        0x1 common/libcommon.o
                0x00000000fe0727b0                current_mtd_partnum
 *fill*         0x00000000fe0727b1        0x3 00
 .sbss.current_mtd_dev
                0x00000000fe0727b4        0x4 common/libcommon.o
                0x00000000fe0727b4                current_mtd_dev
 .sbss.mem_malloc_brk
                0x00000000fe0727b8        0x4 common/libcommon.o
                0x00000000fe0727b8                mem_malloc_brk
 .sbss.mem_malloc_end
                0x00000000fe0727bc        0x4 common/libcommon.o
                0x00000000fe0727bc                mem_malloc_end
 .sbss.mem_malloc_start
                0x00000000fe0727c0        0x4 common/libcommon.o
                0x00000000fe0727c0                mem_malloc_start
 .sbss.hist_num
                0x00000000fe0727c4        0x4 common/libcommon.o
                0x00000000fe0727c4                hist_num
 .sbss          0x00000000fe0727c8       0x44 common/libcommon.o
                0x00000000fe0727c8                usb_started
                0x00000000fe0727cc                save_addr
                0x00000000fe0727d0                his_pad_char
                0x00000000fe0727d4                os_data_init
                0x00000000fe0727d8                nesting_level
                0x00000000fe0727dc                send_ptr
                0x00000000fe0727e0                last_return_code
                0x00000000fe0727e4                working_fdt
                0x00000000fe0727e8                os_data_char
                0x00000000fe0727ec                mtdids
                0x00000000fe0727f4                save_size
                0x00000000fe0727f8                his_eol
                0x00000000fe0727fc                devices
                0x00000000fe072804                his_quote
                0x00000000fe072808                his_pad_count
 .sbss          0x00000000fe07280c        0xc drivers/usb/host/libusb_host.o
                0x00000000fe07280c                rootdev
                0x00000000fe072810                hccr
                0x00000000fe072814                hcor
 .sbss          0x00000000fe072818       0x2c fs/ext4/libext4fs.o
                0x00000000fe072818                part_offset
                0x00000000fe07281c                ext4fs_indir1_size
                0x00000000fe072820                ext4fs_indir2_block
                0x00000000fe072824                ext4fs_indir3_block
                0x00000000fe072828                ext4fs_symlinknest
                0x00000000fe07282c                ext4fs_indir3_size
                0x00000000fe072830                g_parent_inode
                0x00000000fe072834                ext4fs_indir2_size
                0x00000000fe072838                ext4fs_indir1_block
                0x00000000fe07283c                ext4fs_file
                0x00000000fe072840                ext4fs_root
 .sbss.errno    0x00000000fe072844        0x4 lib/libgeneric.o
                0x00000000fe072844                errno
 .sbss          0x00000000fe072848       0x78 net/libnet.o
                0x00000000fe072848                NetArpWaitTry
                0x00000000fe07284c                NetArpWaitPacketMAC
                0x00000000fe072850                NetOurEther
                0x00000000fe072858                NetOurIP
                0x00000000fe07285c                NetPingIP
                0x00000000fe072860                NetServerIP
                0x00000000fe072864                NetArpWaitTxPacketSize
                0x00000000fe072868                NetArpWaitReplyIP
                0x00000000fe07286c                NetArpWaitPacketIP
                0x00000000fe072870                BootpTry
                0x00000000fe072874                eth_current
                0x00000000fe072878                NetServerEther
                0x00000000fe072880                NetOurSubnetMask
                0x00000000fe072884                NetBootFileSize
                0x00000000fe072888                NetIPID
                0x00000000fe07288c                NetRxPacket
                0x00000000fe072890                net_state
                0x00000000fe072894                BootpID
                0x00000000fe072898                NetOurGatewayIP
                0x00000000fe07289c                NetEtherNullAddr
                0x00000000fe0728a4                NetRestartWrap
                0x00000000fe0728a8                NetArpTxPacket
                0x00000000fe0728ac                NetTxPacket
                0x00000000fe0728b0                NetBootFileXferSize
                0x00000000fe0728b4                NetOurDNSIP
                0x00000000fe0728b8                NetRxPacketLen
                0x00000000fe0728bc                NetArpWaitTimerStart
 *(COMMON)
 COMMON         0x00000000fe0728c0     0x178c common/libcommon.o
                0x00000000fe0728c0                console_buffer
                0x00000000fe0729c4                hist_list
                0x00000000fe072a14                hist_lines
                0x00000000fe073e28                images
                0x00000000fe073f58                sata_dev_desc
                0x00000000fe074038                send_parms
 COMMON         0x00000000fe07404c      0x33c drivers/mtd/libmtd.o
                0x00000000fe07404c                flash_info
                0x00000000fe074308                mtd_table
 COMMON         0x00000000fe074388       0xa8 drivers/mtd/nand/libnand.o
                0x00000000fe074388                nand_info
 COMMON         0x00000000fe074430       0x48 fs/ext4/libext4fs.o
                0x00000000fe074430                ext_fs
 COMMON         0x00000000fe074478     0x24d0 net/libnet.o
                0x00000000fe074478                NetArpPacketBuf
                0x00000000fe074a98                NetRxPackets
                0x00000000fe074aa8                BootFile
                0x00000000fe074b28                PktBuf
                0x00000000fe076948                . = ALIGN (0x4)
                0x00000000fe076948                __bss_end__ = .
                0x00000000fe076948                PROVIDE (end, .)
Address of section .text set to 0xfe000000
LOAD arch/powerpc/cpu/mpc83xx/start.o
START GROUP
LOAD api/libapi.o
LOAD arch/powerpc/cpu/mpc83xx/libmpc83xx.o
LOAD arch/powerpc/cpu/mpc8xxx/ddr/libddr.o
LOAD arch/powerpc/cpu/mpc8xxx/lib8xxx.o
LOAD arch/powerpc/lib/libpowerpc.o
LOAD board/freescale/common/libfreescale.o
LOAD common/libcommon.o
LOAD disk/libdisk.o
LOAD drivers/bios_emulator/libatibiosemu.o
LOAD drivers/block/libblock.o
LOAD drivers/dfu/libdfu.o
LOAD drivers/dma/libdma.o
LOAD drivers/fpga/libfpga.o
LOAD drivers/gpio/libgpio.o
LOAD drivers/hwmon/libhwmon.o
LOAD drivers/i2c/libi2c.o
LOAD drivers/input/libinput.o
LOAD drivers/misc/libmisc.o
LOAD drivers/mmc/libmmc.o
LOAD drivers/mtd/libmtd.o
LOAD drivers/mtd/nand/libnand.o
LOAD drivers/mtd/onenand/libonenand.o
LOAD drivers/mtd/spi/libspi_flash.o
LOAD drivers/mtd/ubi/libubi.o
LOAD drivers/net/libnet.o
LOAD drivers/net/phy/libphy.o
LOAD drivers/pci/libpci.o
LOAD drivers/pcmcia/libpcmcia.o
LOAD drivers/power/libpower.o
LOAD drivers/qe/libqe.o
LOAD drivers/rtc/librtc.o
LOAD drivers/serial/libserial.o
LOAD drivers/spi/libspi.o
LOAD drivers/twserial/libtws.o
LOAD drivers/usb/eth/libusb_eth.o
LOAD drivers/usb/gadget/libusb_gadget.o
LOAD drivers/usb/host/libusb_host.o
LOAD drivers/usb/musb/libusb_musb.o
LOAD drivers/usb/phy/libusb_phy.o
LOAD drivers/usb/ulpi/libusb_ulpi.o
LOAD drivers/video/libvideo.o
LOAD drivers/watchdog/libwatchdog.o
LOAD fs/cramfs/libcramfs.o
LOAD fs/ext4/libext4fs.o
LOAD fs/fat/libfat.o
LOAD fs/fdos/libfdos.o
LOAD fs/jffs2/libjffs2.o
LOAD fs/reiserfs/libreiserfs.o
LOAD fs/ubifs/libubifs.o
LOAD fs/yaffs2/libyaffs2.o
LOAD fs/zfs/libzfs.o
LOAD lib/libfdt/libfdt.o
LOAD lib/libgeneric.o
LOAD lib/lzma/liblzma.o
LOAD lib/lzo/liblzo.o
LOAD lib/zlib/libz.o
LOAD net/libnet.o
LOAD post/libpost.o
LOAD test/libtest.o
LOAD board/freescale/mpc8315erdb/libmpc8315erdb.o
END GROUP
LOAD /home/kb310/PPC/tool-chain/lib/gcc/powerpc-e300c3-linux-gnu/4.7.0/libgcc.a
OUTPUT(u-boot elf32-powerpc)

.iplt           0x00000000fe076950        0x0
 .iplt          0x0000000000000000        0x0 arch/powerpc/cpu/mpc83xx/start.o

.debug_line     0x0000000000000000    0x1eb80
 .debug_line    0x0000000000000000      0x2ef arch/powerpc/cpu/mpc83xx/start.o
 .debug_line    0x00000000000002ef     0x180e arch/powerpc/cpu/mpc83xx/libmpc83xx.o
 .debug_line    0x0000000000001afd      0x51d arch/powerpc/cpu/mpc8xxx/lib8xxx.o
 .debug_line    0x000000000000201a      0xd77 arch/powerpc/lib/libpowerpc.o
 .debug_line    0x0000000000002d91     0xbdce common/libcommon.o
 .debug_line    0x000000000000eb5f      0x709 disk/libdisk.o
 .debug_line    0x000000000000f268      0xb54 drivers/block/libblock.o
 .debug_line    0x000000000000fdbc      0x5a0 drivers/i2c/libi2c.o
 .debug_line    0x000000000001035c      0xd37 drivers/mtd/libmtd.o
 .debug_line    0x0000000000011093     0x27a5 drivers/mtd/nand/libnand.o
 .debug_line    0x0000000000013838      0xe80 drivers/net/libnet.o
 .debug_line    0x00000000000146b8     0x16ed drivers/net/phy/libphy.o
 .debug_line    0x0000000000015da5      0x98e drivers/pci/libpci.o
 .debug_line    0x0000000000016733      0x421 drivers/rtc/librtc.o
 .debug_line    0x0000000000016b54      0x435 drivers/serial/libserial.o
 .debug_line    0x0000000000016f89      0xc2e drivers/usb/host/libusb_host.o
 .debug_line    0x0000000000017bb7      0xeea fs/ext4/libext4fs.o
 .debug_line    0x0000000000018aa1     0x1189 lib/libfdt/libfdt.o
 .debug_line    0x0000000000019c2a     0x2392 lib/libgeneric.o
 .debug_line    0x000000000001bfbc      0xbed lib/zlib/libz.o
 .debug_line    0x000000000001cba9     0x1980 net/libnet.o
 .debug_line    0x000000000001e529      0x536 board/freescale/mpc8315erdb/libmpc8315erdb.o
 .debug_line    0x000000000001ea5f      0x121 /home/kb310/PPC/tool-chain/lib/gcc/powerpc-e300c3-linux-gnu/4.7.0/libgcc.a(_lshrdi3.o)

.debug_info     0x0000000000000000    0xb4523
 .debug_info    0x0000000000000000       0x8f arch/powerpc/cpu/mpc83xx/start.o
 .debug_info    0x000000000000008f    0x1850a arch/powerpc/cpu/mpc83xx/libmpc83xx.o
 .debug_info    0x0000000000018599     0x3a44 arch/powerpc/cpu/mpc8xxx/lib8xxx.o
 .debug_info    0x000000000001bfdd     0x3baa arch/powerpc/lib/libpowerpc.o
 .debug_info    0x000000000001fb87    0x3d6d2 common/libcommon.o
 .debug_info    0x000000000005d259     0x1ff0 disk/libdisk.o
 .debug_info    0x000000000005f249     0x49b2 drivers/block/libblock.o
 .debug_info    0x0000000000063bfb     0x18bd drivers/i2c/libi2c.o
 .debug_info    0x00000000000654b8     0x4c3c drivers/mtd/libmtd.o
 .debug_info    0x000000000006a0f4    0x1139b drivers/mtd/nand/libnand.o
 .debug_info    0x000000000007b48f     0x6078 drivers/net/libnet.o
 .debug_info    0x0000000000081507     0x7ff9 drivers/net/phy/libphy.o
 .debug_info    0x0000000000089500     0x3d74 drivers/pci/libpci.o
 .debug_info    0x000000000008d274      0xf05 drivers/rtc/librtc.o
 .debug_info    0x000000000008e179     0x1625 drivers/serial/libserial.o
 .debug_info    0x000000000008f79e     0x399b drivers/usb/host/libusb_host.o
 .debug_info    0x0000000000093139     0x505e fs/ext4/libext4fs.o
 .debug_info    0x0000000000098197     0x52ce lib/libfdt/libfdt.o
 .debug_info    0x000000000009d465     0x64c8 lib/libgeneric.o
 .debug_info    0x00000000000a392d     0x16a4 lib/zlib/libz.o
 .debug_info    0x00000000000a4fd1     0x92c6 net/libnet.o
 .debug_info    0x00000000000ae297     0x5e60 board/freescale/mpc8315erdb/libmpc8315erdb.o
 .debug_info    0x00000000000b40f7      0x42c /home/kb310/PPC/tool-chain/lib/gcc/powerpc-e300c3-linux-gnu/4.7.0/libgcc.a(_lshrdi3.o)

.debug_abbrev   0x0000000000000000    0x1862d
 .debug_abbrev  0x0000000000000000       0x14 arch/powerpc/cpu/mpc83xx/start.o
 .debug_abbrev  0x0000000000000014     0x1909 arch/powerpc/cpu/mpc83xx/libmpc83xx.o
 .debug_abbrev  0x000000000000191d      0x5ec arch/powerpc/cpu/mpc8xxx/lib8xxx.o
 .debug_abbrev  0x0000000000001f09      0xee4 arch/powerpc/lib/libpowerpc.o
 .debug_abbrev  0x0000000000002ded     0x94a8 common/libcommon.o
 .debug_abbrev  0x000000000000c295      0x63e disk/libdisk.o
 .debug_abbrev  0x000000000000c8d3      0x7c8 drivers/block/libblock.o
 .debug_abbrev  0x000000000000d09b      0x45d drivers/i2c/libi2c.o
 .debug_abbrev  0x000000000000d4f8      0x78e drivers/mtd/libmtd.o
 .debug_abbrev  0x000000000000dc86     0x1804 drivers/mtd/nand/libnand.o
 .debug_abbrev  0x000000000000f48a      0xb2a drivers/net/libnet.o
 .debug_abbrev  0x000000000000ffb4     0x180d drivers/net/phy/libphy.o
 .debug_abbrev  0x00000000000117c1      0x862 drivers/pci/libpci.o
 .debug_abbrev  0x0000000000012023      0x3f2 drivers/rtc/librtc.o
 .debug_abbrev  0x0000000000012415      0x403 drivers/serial/libserial.o
 .debug_abbrev  0x0000000000012818      0x6be drivers/usb/host/libusb_host.o
 .debug_abbrev  0x0000000000012ed6      0x883 fs/ext4/libext4fs.o
 .debug_abbrev  0x0000000000013759      0xcd0 lib/libfdt/libfdt.o
 .debug_abbrev  0x0000000000014429     0x1bb0 lib/libgeneric.o
 .debug_abbrev  0x0000000000015fd9      0x3ce lib/zlib/libz.o
 .debug_abbrev  0x00000000000163a7     0x1abb net/libnet.o
 .debug_abbrev  0x0000000000017e62      0x66f board/freescale/mpc8315erdb/libmpc8315erdb.o
 .debug_abbrev  0x00000000000184d1      0x15c /home/kb310/PPC/tool-chain/lib/gcc/powerpc-e300c3-linux-gnu/4.7.0/libgcc.a(_lshrdi3.o)

.debug_aranges  0x0000000000000000     0x3180
 .debug_aranges
                0x0000000000000000       0x20 arch/powerpc/cpu/mpc83xx/start.o
 .debug_aranges
                0x0000000000000020      0x220 arch/powerpc/cpu/mpc83xx/libmpc83xx.o
 .debug_aranges
                0x0000000000000240       0x68 arch/powerpc/cpu/mpc8xxx/lib8xxx.o
 .debug_aranges
                0x00000000000002a8      0x1f0 arch/powerpc/lib/libpowerpc.o
 .debug_aranges
                0x0000000000000498     0x12f0 common/libcommon.o
 .debug_aranges
                0x0000000000001788       0x98 disk/libdisk.o
 .debug_aranges
                0x0000000000001820       0xe8 drivers/block/libblock.o
 .debug_aranges
                0x0000000000001908       0x70 drivers/i2c/libi2c.o
 .debug_aranges
                0x0000000000001978      0x170 drivers/mtd/libmtd.o
 .debug_aranges
                0x0000000000001ae8      0x390 drivers/mtd/nand/libnand.o
 .debug_aranges
                0x0000000000001e78      0x108 drivers/net/libnet.o
 .debug_aranges
                0x0000000000001f80      0x2c0 drivers/net/phy/libphy.o
 .debug_aranges
                0x0000000000002240      0x1e0 drivers/pci/libpci.o
 .debug_aranges
                0x0000000000002420       0x70 drivers/rtc/librtc.o
 .debug_aranges
                0x0000000000002490       0xc8 drivers/serial/libserial.o
 .debug_aranges
                0x0000000000002558       0x90 drivers/usb/host/libusb_host.o
 .debug_aranges
                0x00000000000025e8       0xc0 fs/ext4/libext4fs.o
 .debug_aranges
                0x00000000000026a8      0x2a0 lib/libfdt/libfdt.o
 .debug_aranges
                0x0000000000002948      0x3f8 lib/libgeneric.o
 .debug_aranges
                0x0000000000002d40       0x68 lib/zlib/libz.o
 .debug_aranges
                0x0000000000002da8      0x350 net/libnet.o
 .debug_aranges
                0x00000000000030f8       0x68 board/freescale/mpc8315erdb/libmpc8315erdb.o
 .debug_aranges
                0x0000000000003160       0x20 /home/kb310/PPC/tool-chain/lib/gcc/powerpc-e300c3-linux-gnu/4.7.0/libgcc.a(_lshrdi3.o)

.comment        0x0000000000000000       0x11
 .comment       0x0000000000000000       0x11 arch/powerpc/cpu/mpc83xx/libmpc83xx.o
                                         0xc6 (size before relaxing)
 .comment       0x0000000000000000       0x24 arch/powerpc/cpu/mpc8xxx/lib8xxx.o
 .comment       0x0000000000000000       0x6c arch/powerpc/lib/libpowerpc.o
 .comment       0x0000000000000000      0x3a8 common/libcommon.o
 .comment       0x0000000000000000       0x24 disk/libdisk.o
 .comment       0x0000000000000000       0x24 drivers/block/libblock.o
 .comment       0x0000000000000000       0x12 drivers/i2c/libi2c.o
 .comment       0x0000000000000000       0x24 drivers/mtd/libmtd.o
 .comment       0x0000000000000000       0x7e drivers/mtd/nand/libnand.o
 .comment       0x0000000000000000       0x36 drivers/net/libnet.o
 .comment       0x0000000000000000       0xb4 drivers/net/phy/libphy.o
 .comment       0x0000000000000000       0x36 drivers/pci/libpci.o
 .comment       0x0000000000000000       0x24 drivers/rtc/librtc.o
 .comment       0x0000000000000000       0x24 drivers/serial/libserial.o
 .comment       0x0000000000000000       0x24 drivers/usb/host/libusb_host.o
 .comment       0x0000000000000000       0x36 fs/ext4/libext4fs.o
 .comment       0x0000000000000000       0x6c lib/libfdt/libfdt.o
 .comment       0x0000000000000000      0x132 lib/libgeneric.o
 .comment       0x0000000000000000       0x12 lib/zlib/libz.o
 .comment       0x0000000000000000       0x7e net/libnet.o
 .comment       0x0000000000000000       0x24 board/freescale/mpc8315erdb/libmpc8315erdb.o
 .comment       0x0000000000000000       0x12 /home/kb310/PPC/tool-chain/lib/gcc/powerpc-e300c3-linux-gnu/4.7.0/libgcc.a(_lshrdi3.o)

.note.GNU-stack
                0x0000000000000000        0x0
 .note.GNU-stack
                0x0000000000000000        0x0 arch/powerpc/cpu/mpc83xx/libmpc83xx.o
 .note.GNU-stack
                0x0000000000000000        0x0 arch/powerpc/cpu/mpc8xxx/lib8xxx.o
 .note.GNU-stack
                0x0000000000000000        0x0 arch/powerpc/lib/libpowerpc.o
 .note.GNU-stack
                0x0000000000000000        0x0 common/libcommon.o
 .note.GNU-stack
                0x0000000000000000        0x0 disk/libdisk.o
 .note.GNU-stack
                0x0000000000000000        0x0 drivers/block/libblock.o
 .note.GNU-stack
                0x0000000000000000        0x0 drivers/i2c/libi2c.o
 .note.GNU-stack
                0x0000000000000000        0x0 drivers/mtd/libmtd.o
 .note.GNU-stack
                0x0000000000000000        0x0 drivers/mtd/nand/libnand.o
 .note.GNU-stack
                0x0000000000000000        0x0 drivers/net/libnet.o
 .note.GNU-stack
                0x0000000000000000        0x0 drivers/net/phy/libphy.o
 .note.GNU-stack
                0x0000000000000000        0x0 drivers/pci/libpci.o
 .note.GNU-stack
                0x0000000000000000        0x0 drivers/rtc/librtc.o
 .note.GNU-stack
                0x0000000000000000        0x0 drivers/serial/libserial.o
 .note.GNU-stack
                0x0000000000000000        0x0 drivers/usb/host/libusb_host.o
 .note.GNU-stack
                0x0000000000000000        0x0 fs/ext4/libext4fs.o
 .note.GNU-stack
                0x0000000000000000        0x0 lib/libfdt/libfdt.o
 .note.GNU-stack
                0x0000000000000000        0x0 lib/libgeneric.o
 .note.GNU-stack
                0x0000000000000000        0x0 lib/zlib/libz.o
 .note.GNU-stack
                0x0000000000000000        0x0 net/libnet.o
 .note.GNU-stack
                0x0000000000000000        0x0 board/freescale/mpc8315erdb/libmpc8315erdb.o
 .note.GNU-stack
                0x0000000000000000        0x0 /home/kb310/PPC/tool-chain/lib/gcc/powerpc-e300c3-linux-gnu/4.7.0/libgcc.a(_lshrdi3.o)

.gnu.attributes
                0x0000000000000000       0x12
 .gnu.attributes
                0x0000000000000000       0x10 common/libcommon.o
 .gnu.attributes
                0x0000000000000010       0x12 lib/libgeneric.o

.debug_frame    0x0000000000000000     0xb4fc
 .debug_frame   0x0000000000000000      0x4ec arch/powerpc/cpu/mpc83xx/libmpc83xx.o
 .debug_frame   0x00000000000004ec      0x15c arch/powerpc/cpu/mpc8xxx/lib8xxx.o
 .debug_frame   0x0000000000000648      0x370 arch/powerpc/lib/libpowerpc.o
 .debug_frame   0x00000000000009b8     0x4acc common/libcommon.o
 .debug_frame   0x0000000000005484      0x280 disk/libdisk.o
 .debug_frame   0x0000000000005704      0x3ac drivers/block/libblock.o
 .debug_frame   0x0000000000005ab0      0x1f8 drivers/i2c/libi2c.o
 .debug_frame   0x0000000000005ca8      0x550 drivers/mtd/libmtd.o
 .debug_frame   0x00000000000061f8     0x113c drivers/mtd/nand/libnand.o
 .debug_frame   0x0000000000007334      0x42c drivers/net/libnet.o
 .debug_frame   0x0000000000007760      0x87c drivers/net/phy/libphy.o
 .debug_frame   0x0000000000007fdc      0x6c8 drivers/pci/libpci.o
 .debug_frame   0x00000000000086a4      0x120 drivers/rtc/librtc.o
 .debug_frame   0x00000000000087c4      0x21c drivers/serial/libserial.o
 .debug_frame   0x00000000000089e0      0x20c drivers/usb/host/libusb_host.o
 .debug_frame   0x0000000000008bec      0x30c fs/ext4/libext4fs.o
 .debug_frame   0x0000000000008ef8      0xa7c lib/libfdt/libfdt.o
 .debug_frame   0x0000000000009974      0xb94 lib/libgeneric.o
 .debug_frame   0x000000000000a508      0x1f8 lib/zlib/libz.o
 .debug_frame   0x000000000000a700      0xcd4 net/libnet.o
 .debug_frame   0x000000000000b3d4      0x108 board/freescale/mpc8315erdb/libmpc8315erdb.o
 .debug_frame   0x000000000000b4dc       0x20 /home/kb310/PPC/tool-chain/lib/gcc/powerpc-e300c3-linux-gnu/4.7.0/libgcc.a(_lshrdi3.o)

.debug_str      0x0000000000000000     0xf358
 .debug_str     0x0000000000000000     0x1719 arch/powerpc/cpu/mpc83xx/libmpc83xx.o
                                       0x96bb (size before relaxing)
 .debug_str     0x0000000000001719      0x3e0 arch/powerpc/cpu/mpc8xxx/lib8xxx.o
                                       0x1690 (size before relaxing)
 .debug_str     0x0000000000001af9     0x117e arch/powerpc/lib/libpowerpc.o
                                       0x3271 (size before relaxing)
 .debug_str     0x0000000000002c77     0x51ff common/libcommon.o
                                      0x19db1 (size before relaxing)
 .debug_str     0x0000000000007e76      0x281 disk/libdisk.o
                                        0xbb8 (size before relaxing)
 .debug_str     0x00000000000080f7     0x1655 drivers/block/libblock.o
                                       0x2d82 (size before relaxing)
 .debug_str     0x000000000000974c      0x14e drivers/i2c/libi2c.o
                                        0x5c5 (size before relaxing)
 .debug_str     0x000000000000989a      0x658 drivers/mtd/libmtd.o
                                       0x11f2 (size before relaxing)
 .debug_str     0x0000000000009ef2      0xecd drivers/mtd/nand/libnand.o
                                       0x554e (size before relaxing)
 .debug_str     0x000000000000adbf      0x80d drivers/net/libnet.o
                                       0x1a79 (size before relaxing)
 .debug_str     0x000000000000b5cc      0x686 drivers/net/phy/libphy.o
                                       0x353a (size before relaxing)
 .debug_str     0x000000000000bc52      0x462 drivers/pci/libpci.o
                                       0x13d3 (size before relaxing)
 .debug_str     0x000000000000c0b4       0xd7 drivers/rtc/librtc.o
                                        0x6db (size before relaxing)
 .debug_str     0x000000000000c18b      0x24b drivers/serial/libserial.o
                                        0x8d7 (size before relaxing)
 .debug_str     0x000000000000c3d6      0x4c7 drivers/usb/host/libusb_host.o
                                       0x124e (size before relaxing)
 .debug_str     0x000000000000c89d      0x872 fs/ext4/libext4fs.o
                                       0x1ced (size before relaxing)
 .debug_str     0x000000000000d10f      0x6e0 lib/libfdt/libfdt.o
                                       0x16bd (size before relaxing)
 .debug_str     0x000000000000d7ef      0x5b4 lib/libgeneric.o
                                       0x2b0a (size before relaxing)
 .debug_str     0x000000000000dda3      0x2cf lib/zlib/libz.o
                                        0x75c (size before relaxing)
 .debug_str     0x000000000000e072      0xf43 net/libnet.o
                                       0x534c (size before relaxing)
 .debug_str     0x000000000000efb5      0x165 board/freescale/mpc8315erdb/libmpc8315erdb.o
                                       0x242c (size before relaxing)
 .debug_str     0x000000000000f11a      0x23e /home/kb310/PPC/tool-chain/lib/gcc/powerpc-e300c3-linux-gnu/4.7.0/libgcc.a(_lshrdi3.o)
                                        0x32f (size before relaxing)

.debug_loc      0x0000000000000000    0x60e69
 .debug_loc     0x0000000000000000     0x1e8a arch/powerpc/cpu/mpc83xx/libmpc83xx.o
 .debug_loc     0x0000000000001e8a      0xdd4 arch/powerpc/cpu/mpc8xxx/lib8xxx.o
 .debug_loc     0x0000000000002c5e      0xf0b arch/powerpc/lib/libpowerpc.o
 .debug_loc     0x0000000000003b69    0x27152 common/libcommon.o
 .debug_loc     0x000000000002acbb     0x1387 disk/libdisk.o
 .debug_loc     0x000000000002c042     0x2e62 drivers/block/libblock.o
 .debug_loc     0x000000000002eea4     0x1c95 drivers/i2c/libi2c.o
 .debug_loc     0x0000000000030b39     0x362e drivers/mtd/libmtd.o
 .debug_loc     0x0000000000034167     0xab86 drivers/mtd/nand/libnand.o
 .debug_loc     0x000000000003eced     0x3565 drivers/net/libnet.o
 .debug_loc     0x0000000000042252     0x3a1a drivers/net/phy/libphy.o
 .debug_loc     0x0000000000045c6c     0x2e7b drivers/pci/libpci.o
 .debug_loc     0x0000000000048ae7      0x798 drivers/rtc/librtc.o
 .debug_loc     0x000000000004927f      0x5e0 drivers/serial/libserial.o
 .debug_loc     0x000000000004985f     0x2837 drivers/usb/host/libusb_host.o
 .debug_loc     0x000000000004c096     0x2c86 fs/ext4/libext4fs.o
 .debug_loc     0x000000000004ed1c     0x4ee7 lib/libfdt/libfdt.o
 .debug_loc     0x0000000000053c03     0x5797 lib/libgeneric.o
 .debug_loc     0x000000000005939a     0x2b35 lib/zlib/libz.o
 .debug_loc     0x000000000005becf     0x4b62 net/libnet.o
 .debug_loc     0x0000000000060a31      0x39f board/freescale/mpc8315erdb/libmpc8315erdb.o
 .debug_loc     0x0000000000060dd0       0x99 /home/kb310/PPC/tool-chain/lib/gcc/powerpc-e300c3-linux-gnu/4.7.0/libgcc.a(_lshrdi3.o)

.debug_ranges   0x0000000000000000     0x52e8
 .debug_ranges  0x0000000000000000      0x298 arch/powerpc/cpu/mpc83xx/libmpc83xx.o
 .debug_ranges  0x0000000000000298       0xc8 arch/powerpc/cpu/mpc8xxx/lib8xxx.o
 .debug_ranges  0x0000000000000360      0x140 arch/powerpc/lib/libpowerpc.o
 .debug_ranges  0x00000000000004a0     0x2180 common/libcommon.o
 .debug_ranges  0x0000000000002620       0xd8 disk/libdisk.o
 .debug_ranges  0x00000000000026f8      0x190 drivers/block/libblock.o
 .debug_ranges  0x0000000000002888      0x2d0 drivers/i2c/libi2c.o
 .debug_ranges  0x0000000000002b58      0x4f8 drivers/mtd/libmtd.o
 .debug_ranges  0x0000000000003050      0x6b0 drivers/mtd/nand/libnand.o
 .debug_ranges  0x0000000000003700      0x438 drivers/net/libnet.o
 .debug_ranges  0x0000000000003b38      0x3e8 drivers/net/phy/libphy.o
 .debug_ranges  0x0000000000003f20      0x1c8 drivers/pci/libpci.o
 .debug_ranges  0x00000000000040e8       0x50 drivers/rtc/librtc.o
 .debug_ranges  0x0000000000004138       0xa8 drivers/serial/libserial.o
 .debug_ranges  0x00000000000041e0      0x190 drivers/usb/host/libusb_host.o
 .debug_ranges  0x0000000000004370      0x1f8 fs/ext4/libext4fs.o
 .debug_ranges  0x0000000000004568      0x380 lib/libfdt/libfdt.o
 .debug_ranges  0x00000000000048e8      0x520 lib/libgeneric.o
 .debug_ranges  0x0000000000004e08       0x70 lib/zlib/libz.o
 .debug_ranges  0x0000000000004e78      0x428 net/libnet.o
 .debug_ranges  0x00000000000052a0       0x48 board/freescale/mpc8315erdb/libmpc8315erdb.o
